
E:/Users/WillowKoishi/Documents/2040py/C2040/pico-uart98/RP2040toPC98/build/RP2040TOPC98.elf:     file format elf32-littlearm

Sections:
Idx Name          Size      VMA       LMA       File off  Algn
  0 .boot2        00000100  10000000  10000000  00001000  2**0
                  CONTENTS, ALLOC, LOAD, READONLY, CODE
  1 .text         00002458  10000100  10000100  00001100  2**3
                  CONTENTS, ALLOC, LOAD, READONLY, CODE
  2 .rodata       00000114  10002558  10002558  00003558  2**0
                  CONTENTS, ALLOC, LOAD, READONLY, DATA
  3 .binary_info  00000024  1000266c  1000266c  0000366c  2**2
                  CONTENTS, ALLOC, LOAD, DATA
  4 .ram_vector_table 000000c0  20000000  20000000  00004260  2**2
                  CONTENTS
  5 .data         000001a0  200000c0  10002690  000040c0  2**4
                  CONTENTS, ALLOC, LOAD, CODE
  6 .uninitialized_data 00000000  20000260  20000260  00004320  2**0
                  CONTENTS
  7 .scratch_x    00000000  20040000  20040000  00004320  2**0
                  CONTENTS
  8 .scratch_y    00000000  20041000  20041000  00004320  2**0
                  CONTENTS
  9 .bss          00000480  20000260  20000260  00004260  2**3
                  ALLOC
 10 .heap         00000800  200006e0  200006e0  00004320  2**2
                  CONTENTS, READONLY
 11 .stack_dummy  00000800  20041000  20041000  00004b20  2**5
                  CONTENTS, READONLY
 12 .ARM.attributes 00000028  00000000  00000000  00005320  2**0
                  CONTENTS, READONLY
 13 .comment      00000049  00000000  00000000  00005348  2**0
                  CONTENTS, READONLY
 14 .debug_frame  00000028  00000000  00000000  00005394  2**2
                  CONTENTS, READONLY, DEBUGGING, OCTETS

E:/Users/WillowKoishi/Documents/2040py/C2040/pico-uart98/RP2040toPC98/build/RP2040TOPC98.elf:     file format elf32-littlearm


Disassembly of section .boot2:

10000000 <__boot2_start__>:
10000000:	4b32b500 	.word	0x4b32b500
10000004:	60582021 	.word	0x60582021
10000008:	21026898 	.word	0x21026898
1000000c:	60984388 	.word	0x60984388
10000010:	611860d8 	.word	0x611860d8
10000014:	4b2e6158 	.word	0x4b2e6158
10000018:	60992100 	.word	0x60992100
1000001c:	61592102 	.word	0x61592102
10000020:	22f02101 	.word	0x22f02101
10000024:	492b5099 	.word	0x492b5099
10000028:	21016019 	.word	0x21016019
1000002c:	20356099 	.word	0x20356099
10000030:	f844f000 	.word	0xf844f000
10000034:	42902202 	.word	0x42902202
10000038:	2106d014 	.word	0x2106d014
1000003c:	f0006619 	.word	0xf0006619
10000040:	6e19f834 	.word	0x6e19f834
10000044:	66192101 	.word	0x66192101
10000048:	66182000 	.word	0x66182000
1000004c:	f000661a 	.word	0xf000661a
10000050:	6e19f82c 	.word	0x6e19f82c
10000054:	6e196e19 	.word	0x6e196e19
10000058:	f0002005 	.word	0xf0002005
1000005c:	2101f82f 	.word	0x2101f82f
10000060:	d1f94208 	.word	0xd1f94208
10000064:	60992100 	.word	0x60992100
10000068:	6019491b 	.word	0x6019491b
1000006c:	60592100 	.word	0x60592100
10000070:	481b491a 	.word	0x481b491a
10000074:	21016001 	.word	0x21016001
10000078:	21eb6099 	.word	0x21eb6099
1000007c:	21a06619 	.word	0x21a06619
10000080:	f0006619 	.word	0xf0006619
10000084:	2100f812 	.word	0x2100f812
10000088:	49166099 	.word	0x49166099
1000008c:	60014814 	.word	0x60014814
10000090:	60992101 	.word	0x60992101
10000094:	2800bc01 	.word	0x2800bc01
10000098:	4700d000 	.word	0x4700d000
1000009c:	49134812 	.word	0x49134812
100000a0:	c8036008 	.word	0xc8036008
100000a4:	8808f380 	.word	0x8808f380
100000a8:	b5034708 	.word	0xb5034708
100000ac:	20046a99 	.word	0x20046a99
100000b0:	d0fb4201 	.word	0xd0fb4201
100000b4:	42012001 	.word	0x42012001
100000b8:	bd03d1f8 	.word	0xbd03d1f8
100000bc:	6618b502 	.word	0x6618b502
100000c0:	f7ff6618 	.word	0xf7ff6618
100000c4:	6e18fff2 	.word	0x6e18fff2
100000c8:	bd026e18 	.word	0xbd026e18
100000cc:	40020000 	.word	0x40020000
100000d0:	18000000 	.word	0x18000000
100000d4:	00070000 	.word	0x00070000
100000d8:	005f0300 	.word	0x005f0300
100000dc:	00002221 	.word	0x00002221
100000e0:	180000f4 	.word	0x180000f4
100000e4:	a0002022 	.word	0xa0002022
100000e8:	10000100 	.word	0x10000100
100000ec:	e000ed08 	.word	0xe000ed08
	...
100000fc:	7a4eb274 	.word	0x7a4eb274

Disassembly of section .text:

10000100 <__VECTOR_TABLE>:
10000100:	20042000 	.word	0x20042000
10000104:	100001f7 	.word	0x100001f7
10000108:	100001c3 	.word	0x100001c3
1000010c:	100001c5 	.word	0x100001c5
10000110:	100001c1 	.word	0x100001c1
10000114:	100001c1 	.word	0x100001c1
10000118:	100001c1 	.word	0x100001c1
1000011c:	100001c1 	.word	0x100001c1
10000120:	100001c1 	.word	0x100001c1
10000124:	100001c1 	.word	0x100001c1
10000128:	100001c1 	.word	0x100001c1
1000012c:	100001c7 	.word	0x100001c7
10000130:	100001c1 	.word	0x100001c1
10000134:	100001c1 	.word	0x100001c1
10000138:	100001c9 	.word	0x100001c9
1000013c:	100001cb 	.word	0x100001cb
10000140:	100001cd 	.word	0x100001cd
10000144:	100001cd 	.word	0x100001cd
10000148:	100001cd 	.word	0x100001cd
1000014c:	100001cd 	.word	0x100001cd
10000150:	100001cd 	.word	0x100001cd
10000154:	100001cd 	.word	0x100001cd
10000158:	100001cd 	.word	0x100001cd
1000015c:	100001cd 	.word	0x100001cd
10000160:	100001cd 	.word	0x100001cd
10000164:	100001cd 	.word	0x100001cd
10000168:	100001cd 	.word	0x100001cd
1000016c:	100001cd 	.word	0x100001cd
10000170:	100001cd 	.word	0x100001cd
10000174:	100001cd 	.word	0x100001cd
10000178:	100001cd 	.word	0x100001cd
1000017c:	100001cd 	.word	0x100001cd
10000180:	100001cd 	.word	0x100001cd
10000184:	100001cd 	.word	0x100001cd
10000188:	100001cd 	.word	0x100001cd
1000018c:	100001cd 	.word	0x100001cd
10000190:	100001cd 	.word	0x100001cd
10000194:	100001cd 	.word	0x100001cd
10000198:	100001cd 	.word	0x100001cd
1000019c:	100001cd 	.word	0x100001cd
100001a0:	100001cd 	.word	0x100001cd
100001a4:	100001cd 	.word	0x100001cd
100001a8:	100001cd 	.word	0x100001cd
100001ac:	100001cd 	.word	0x100001cd
100001b0:	100001cd 	.word	0x100001cd
100001b4:	100001cd 	.word	0x100001cd
100001b8:	100001cd 	.word	0x100001cd
100001bc:	100001cd 	.word	0x100001cd

100001c0 <isr_invalid>:
100001c0:	be00      	bkpt	0x0000

100001c2 <isr_nmi>:
100001c2:	be00      	bkpt	0x0000

100001c4 <isr_hardfault>:
100001c4:	be00      	bkpt	0x0000

100001c6 <isr_svcall>:
100001c6:	be00      	bkpt	0x0000

100001c8 <isr_pendsv>:
100001c8:	be00      	bkpt	0x0000

100001ca <isr_systick>:
100001ca:	be00      	bkpt	0x0000

100001cc <__unhandled_user_irq>:
100001cc:	f000 f84b 	bl	10000266 <__get_current_exception>
100001d0:	3810      	subs	r0, #16

100001d2 <unhandled_user_irq_num_in_r0>:
100001d2:	be00      	bkpt	0x0000

100001d4 <binary_info_header>:
100001d4:	7188ebf2 	.word	0x7188ebf2
100001d8:	1000266c 	.word	0x1000266c
100001dc:	10002690 	.word	0x10002690
100001e0:	10000234 	.word	0x10000234
100001e4:	e71aa390 	.word	0xe71aa390

100001e8 <_entry_point>:
100001e8:	2000      	movs	r0, #0
100001ea:	4921      	ldr	r1, [pc, #132]	; (10000270 <__get_current_exception+0xa>)
100001ec:	6008      	str	r0, [r1, #0]
100001ee:	c806      	ldmia	r0!, {r1, r2}
100001f0:	f381 8808 	msr	MSP, r1
100001f4:	4710      	bx	r2

100001f6 <_reset_handler>:
100001f6:	481f      	ldr	r0, [pc, #124]	; (10000274 <__get_current_exception+0xe>)
100001f8:	6800      	ldr	r0, [r0, #0]
100001fa:	2800      	cmp	r0, #0
100001fc:	d12f      	bne.n	1000025e <hold_non_core0_in_bootrom>
100001fe:	a40d      	add	r4, pc, #52	; (adr r4, 10000234 <data_cpy_table>)
10000200:	cc0e      	ldmia	r4!, {r1, r2, r3}
10000202:	2900      	cmp	r1, #0
10000204:	d002      	beq.n	1000020c <_reset_handler+0x16>
10000206:	f000 f812 	bl	1000022e <data_cpy>
1000020a:	e7f9      	b.n	10000200 <_reset_handler+0xa>
1000020c:	491a      	ldr	r1, [pc, #104]	; (10000278 <__get_current_exception+0x12>)
1000020e:	4a1b      	ldr	r2, [pc, #108]	; (1000027c <__get_current_exception+0x16>)
10000210:	2000      	movs	r0, #0
10000212:	e000      	b.n	10000216 <bss_fill_test>

10000214 <bss_fill_loop>:
10000214:	c101      	stmia	r1!, {r0}

10000216 <bss_fill_test>:
10000216:	4291      	cmp	r1, r2
10000218:	d1fc      	bne.n	10000214 <bss_fill_loop>

1000021a <platform_entry>:
1000021a:	4919      	ldr	r1, [pc, #100]	; (10000280 <__get_current_exception+0x1a>)
1000021c:	4788      	blx	r1
1000021e:	4919      	ldr	r1, [pc, #100]	; (10000284 <__get_current_exception+0x1e>)
10000220:	4788      	blx	r1
10000222:	4919      	ldr	r1, [pc, #100]	; (10000288 <__get_current_exception+0x22>)
10000224:	4788      	blx	r1
10000226:	be00      	bkpt	0x0000
10000228:	e7fd      	b.n	10000226 <platform_entry+0xc>

1000022a <data_cpy_loop>:
1000022a:	c901      	ldmia	r1!, {r0}
1000022c:	c201      	stmia	r2!, {r0}

1000022e <data_cpy>:
1000022e:	429a      	cmp	r2, r3
10000230:	d3fb      	bcc.n	1000022a <data_cpy_loop>
10000232:	4770      	bx	lr

10000234 <data_cpy_table>:
10000234:	10002690 	.word	0x10002690
10000238:	200000c0 	.word	0x200000c0
1000023c:	20000260 	.word	0x20000260
10000240:	10002830 	.word	0x10002830
10000244:	20040000 	.word	0x20040000
10000248:	20040000 	.word	0x20040000
1000024c:	10002830 	.word	0x10002830
10000250:	20041000 	.word	0x20041000
10000254:	20041000 	.word	0x20041000
10000258:	00000000 	.word	0x00000000
1000025c:	4770      	bx	lr

1000025e <hold_non_core0_in_bootrom>:
1000025e:	480b      	ldr	r0, [pc, #44]	; (1000028c <__get_current_exception+0x26>)
10000260:	f001 fc64 	bl	10001b2c <rom_func_lookup>
10000264:	4700      	bx	r0

10000266 <__get_current_exception>:
10000266:	f3ef 8005 	mrs	r0, IPSR
1000026a:	b2c0      	uxtb	r0, r0
1000026c:	4770      	bx	lr
1000026e:	0000      	.short	0x0000
10000270:	e000ed08 	.word	0xe000ed08
10000274:	d0000000 	.word	0xd0000000
10000278:	20000260 	.word	0x20000260
1000027c:	200006e0 	.word	0x200006e0
10000280:	1000144d 	.word	0x1000144d
10000284:	100006d9 	.word	0x100006d9
10000288:	10001519 	.word	0x10001519
1000028c:	00005657 	.word	0x00005657

10000290 <__bi_50>:
10000290:	50520006 5360b3ab 100025e1              ..RP..`S.%..

1000029c <__bi_38>:
1000029c:	50520006 02031c86 100025ec              ..RP.....%..

100002a8 <__bi_30>:
100002a8:	50520006 9da22254 100025f9              ..RPT"...%..

100002b4 <__bi_22>:
100002b4:	50520005 68f465de 10002830              ..RP.e.h0(..

100002c0 <_init>:
100002c0:	b5f8      	push	{r3, r4, r5, r6, r7, lr}
100002c2:	46c0      	nop			; (mov r8, r8)

100002c4 <__do_global_dtors_aux>:
100002c4:	b510      	push	{r4, lr}
100002c6:	4c06      	ldr	r4, [pc, #24]	; (100002e0 <__do_global_dtors_aux+0x1c>)
100002c8:	7823      	ldrb	r3, [r4, #0]
100002ca:	2b00      	cmp	r3, #0
100002cc:	d107      	bne.n	100002de <__do_global_dtors_aux+0x1a>
100002ce:	4b05      	ldr	r3, [pc, #20]	; (100002e4 <__do_global_dtors_aux+0x20>)
100002d0:	2b00      	cmp	r3, #0
100002d2:	d002      	beq.n	100002da <__do_global_dtors_aux+0x16>
100002d4:	4804      	ldr	r0, [pc, #16]	; (100002e8 <__do_global_dtors_aux+0x24>)
100002d6:	e000      	b.n	100002da <__do_global_dtors_aux+0x16>
100002d8:	bf00      	nop
100002da:	2301      	movs	r3, #1
100002dc:	7023      	strb	r3, [r4, #0]
100002de:	bd10      	pop	{r4, pc}
100002e0:	20000360 	.word	0x20000360
100002e4:	00000000 	.word	0x00000000
100002e8:	10002558 	.word	0x10002558

100002ec <frame_dummy>:
100002ec:	4b04      	ldr	r3, [pc, #16]	; (10000300 <frame_dummy+0x14>)
100002ee:	b510      	push	{r4, lr}
100002f0:	2b00      	cmp	r3, #0
100002f2:	d003      	beq.n	100002fc <frame_dummy+0x10>
100002f4:	4903      	ldr	r1, [pc, #12]	; (10000304 <frame_dummy+0x18>)
100002f6:	4804      	ldr	r0, [pc, #16]	; (10000308 <frame_dummy+0x1c>)
100002f8:	e000      	b.n	100002fc <frame_dummy+0x10>
100002fa:	bf00      	nop
100002fc:	bd10      	pop	{r4, pc}
100002fe:	46c0      	nop			; (mov r8, r8)
10000300:	00000000 	.word	0x00000000
10000304:	20000364 	.word	0x20000364
10000308:	10002558 	.word	0x10002558

1000030c <setS98Keys>:
1000030c:	b570      	push	{r4, r5, r6, lr}
1000030e:	0015      	movs	r5, r2
10000310:	0004      	movs	r4, r0
10000312:	0010      	movs	r0, r2
10000314:	000e      	movs	r6, r1
10000316:	f000 faf7 	bl	10000908 <gpio_init>
1000031a:	0028      	movs	r0, r5
1000031c:	2200      	movs	r2, #0
1000031e:	2101      	movs	r1, #1
10000320:	f000 fadc 	bl	100008dc <gpio_set_pulls>
10000324:	2300      	movs	r3, #0
10000326:	4904      	ldr	r1, [pc, #16]	; (10000338 <setS98Keys+0x2c>)
10000328:	0124      	lsls	r4, r4, #4
1000032a:	190a      	adds	r2, r1, r4
1000032c:	6055      	str	r5, [r2, #4]
1000032e:	5066      	str	r6, [r4, r1]
10000330:	6093      	str	r3, [r2, #8]
10000332:	60d3      	str	r3, [r2, #12]
10000334:	bd70      	pop	{r4, r5, r6, pc}
10000336:	46c0      	nop			; (mov r8, r8)
10000338:	200003c4 	.word	0x200003c4

1000033c <init_keys>:
1000033c:	b510      	push	{r4, lr}
1000033e:	220a      	movs	r2, #10
10000340:	2170      	movs	r1, #112	; 0x70
10000342:	2000      	movs	r0, #0
10000344:	f7ff ffe2 	bl	1000030c <setS98Keys>
10000348:	220b      	movs	r2, #11
1000034a:	2129      	movs	r1, #41	; 0x29
1000034c:	2001      	movs	r0, #1
1000034e:	f7ff ffdd 	bl	1000030c <setS98Keys>
10000352:	220c      	movs	r2, #12
10000354:	212a      	movs	r1, #42	; 0x2a
10000356:	2002      	movs	r0, #2
10000358:	f7ff ffd8 	bl	1000030c <setS98Keys>
1000035c:	220e      	movs	r2, #14
1000035e:	212b      	movs	r1, #43	; 0x2b
10000360:	2003      	movs	r0, #3
10000362:	f7ff ffd3 	bl	1000030c <setS98Keys>
10000366:	220d      	movs	r2, #13
10000368:	211f      	movs	r1, #31
1000036a:	2004      	movs	r0, #4
1000036c:	f7ff ffce 	bl	1000030c <setS98Keys>
10000370:	2213      	movs	r2, #19
10000372:	2100      	movs	r1, #0
10000374:	2005      	movs	r0, #5
10000376:	f7ff ffc9 	bl	1000030c <setS98Keys>
1000037a:	220f      	movs	r2, #15
1000037c:	213a      	movs	r1, #58	; 0x3a
1000037e:	2006      	movs	r0, #6
10000380:	f7ff ffc4 	bl	1000030c <setS98Keys>
10000384:	2212      	movs	r2, #18
10000386:	213d      	movs	r1, #61	; 0x3d
10000388:	2007      	movs	r0, #7
1000038a:	f7ff ffbf 	bl	1000030c <setS98Keys>
1000038e:	2210      	movs	r2, #16
10000390:	213b      	movs	r1, #59	; 0x3b
10000392:	2008      	movs	r0, #8
10000394:	f7ff ffba 	bl	1000030c <setS98Keys>
10000398:	2211      	movs	r2, #17
1000039a:	213c      	movs	r1, #60	; 0x3c
1000039c:	2009      	movs	r0, #9
1000039e:	f7ff ffb5 	bl	1000030c <setS98Keys>
100003a2:	bd10      	pop	{r4, pc}

100003a4 <send98>:
100003a4:	b570      	push	{r4, r5, r6, lr}
100003a6:	25d0      	movs	r5, #208	; 0xd0
100003a8:	0006      	movs	r6, r0
100003aa:	2401      	movs	r4, #1
100003ac:	062d      	lsls	r5, r5, #24
100003ae:	686b      	ldr	r3, [r5, #4]
100003b0:	08db      	lsrs	r3, r3, #3
100003b2:	4223      	tst	r3, r4
100003b4:	d1fb      	bne.n	100003ae <send98+0xa>
100003b6:	2220      	movs	r2, #32
100003b8:	4b09      	ldr	r3, [pc, #36]	; (100003e0 <send98+0x3c>)
100003ba:	6999      	ldr	r1, [r3, #24]
100003bc:	4211      	tst	r1, r2
100003be:	d1fc      	bne.n	100003ba <send98+0x16>
100003c0:	b2f2      	uxtb	r2, r6
100003c2:	601a      	str	r2, [r3, #0]
100003c4:	686b      	ldr	r3, [r5, #4]
100003c6:	08db      	lsrs	r3, r3, #3
100003c8:	4223      	tst	r3, r4
100003ca:	d0fb      	beq.n	100003c4 <send98+0x20>
100003cc:	2019      	movs	r0, #25
100003ce:	2100      	movs	r1, #0
100003d0:	f000 fdee 	bl	10000fb0 <sleep_us>
100003d4:	686b      	ldr	r3, [r5, #4]
100003d6:	089b      	lsrs	r3, r3, #2
100003d8:	4223      	tst	r3, r4
100003da:	d0e8      	beq.n	100003ae <send98+0xa>
100003dc:	bd70      	pop	{r4, r5, r6, pc}
100003de:	46c0      	nop			; (mov r8, r8)
100003e0:	40038000 	.word	0x40038000

100003e4 <board_millis>:
100003e4:	b510      	push	{r4, lr}
100003e6:	f000 fe57 	bl	10001098 <time_us_64>
100003ea:	2900      	cmp	r1, #0
100003ec:	d005      	beq.n	100003fa <board_millis+0x16>
100003ee:	22fa      	movs	r2, #250	; 0xfa
100003f0:	2300      	movs	r3, #0
100003f2:	0092      	lsls	r2, r2, #2
100003f4:	f001 fc00 	bl	10001bf8 <__wrap___aeabi_uldivmod>
100003f8:	bd10      	pop	{r4, pc}
100003fa:	21fa      	movs	r1, #250	; 0xfa
100003fc:	0089      	lsls	r1, r1, #2
100003fe:	f001 fbb9 	bl	10001b74 <__wrap___aeabi_uidiv>
10000402:	e7f9      	b.n	100003f8 <board_millis+0x14>

10000404 <pushing>:
10000404:	b5f7      	push	{r0, r1, r2, r4, r5, r6, r7, lr}
10000406:	27d0      	movs	r7, #208	; 0xd0
10000408:	4c4f      	ldr	r4, [pc, #316]	; (10000548 <pushing+0x144>)
1000040a:	0105      	lsls	r5, r0, #4
1000040c:	063f      	lsls	r7, r7, #24
1000040e:	1966      	adds	r6, r4, r5
10000410:	6872      	ldr	r2, [r6, #4]
10000412:	687b      	ldr	r3, [r7, #4]
10000414:	9000      	str	r0, [sp, #0]
10000416:	40d3      	lsrs	r3, r2
10000418:	2201      	movs	r2, #1
1000041a:	4213      	tst	r3, r2
1000041c:	d151      	bne.n	100004c2 <pushing+0xbe>
1000041e:	20c8      	movs	r0, #200	; 0xc8
10000420:	2100      	movs	r1, #0
10000422:	f000 fdc5 	bl	10000fb0 <sleep_us>
10000426:	68b2      	ldr	r2, [r6, #8]
10000428:	2a00      	cmp	r2, #0
1000042a:	d109      	bne.n	10000440 <pushing+0x3c>
1000042c:	5928      	ldr	r0, [r5, r4]
1000042e:	f7ff ffb9 	bl	100003a4 <send98>
10000432:	f7ff ffd7 	bl	100003e4 <board_millis>
10000436:	60b0      	str	r0, [r6, #8]
10000438:	2380      	movs	r3, #128	; 0x80
1000043a:	049b      	lsls	r3, r3, #18
1000043c:	617b      	str	r3, [r7, #20]
1000043e:	bdf7      	pop	{r0, r1, r2, r4, r5, r6, r7, pc}
10000440:	592b      	ldr	r3, [r5, r4]
10000442:	2b70      	cmp	r3, #112	; 0x70
10000444:	d03d      	beq.n	100004c2 <pushing+0xbe>
10000446:	6871      	ldr	r1, [r6, #4]
10000448:	687b      	ldr	r3, [r7, #4]
1000044a:	40cb      	lsrs	r3, r1
1000044c:	2101      	movs	r1, #1
1000044e:	420b      	tst	r3, r1
10000450:	d022      	beq.n	10000498 <pushing+0x94>
10000452:	27d0      	movs	r7, #208	; 0xd0
10000454:	9a00      	ldr	r2, [sp, #0]
10000456:	063f      	lsls	r7, r7, #24
10000458:	0112      	lsls	r2, r2, #4
1000045a:	18a6      	adds	r6, r4, r2
1000045c:	687b      	ldr	r3, [r7, #4]
1000045e:	9200      	str	r2, [sp, #0]
10000460:	6872      	ldr	r2, [r6, #4]
10000462:	40d3      	lsrs	r3, r2
10000464:	2201      	movs	r2, #1
10000466:	4213      	tst	r3, r2
10000468:	d150      	bne.n	1000050c <pushing+0x108>
1000046a:	68f3      	ldr	r3, [r6, #12]
1000046c:	2b00      	cmp	r3, #0
1000046e:	d14d      	bne.n	1000050c <pushing+0x108>
10000470:	68b3      	ldr	r3, [r6, #8]
10000472:	2b00      	cmp	r3, #0
10000474:	da4a      	bge.n	1000050c <pushing+0x108>
10000476:	f7ff ffb5 	bl	100003e4 <board_millis>
1000047a:	68b3      	ldr	r3, [r6, #8]
1000047c:	18c0      	adds	r0, r0, r3
1000047e:	9b00      	ldr	r3, [sp, #0]
10000480:	281d      	cmp	r0, #29
10000482:	dd3f      	ble.n	10000504 <pushing+0x100>
10000484:	58e0      	ldr	r0, [r4, r3]
10000486:	f7ff ff8d 	bl	100003a4 <send98>
1000048a:	f7ff ffab 	bl	100003e4 <board_millis>
1000048e:	2301      	movs	r3, #1
10000490:	4240      	negs	r0, r0
10000492:	60b0      	str	r0, [r6, #8]
10000494:	60f3      	str	r3, [r6, #12]
10000496:	e7cf      	b.n	10000438 <pushing+0x34>
10000498:	2a00      	cmp	r2, #0
1000049a:	ddda      	ble.n	10000452 <pushing+0x4e>
1000049c:	f7ff ffa2 	bl	100003e4 <board_millis>
100004a0:	68b3      	ldr	r3, [r6, #8]
100004a2:	1ac0      	subs	r0, r0, r3
100004a4:	23fa      	movs	r3, #250	; 0xfa
100004a6:	005b      	lsls	r3, r3, #1
100004a8:	4298      	cmp	r0, r3
100004aa:	db07      	blt.n	100004bc <pushing+0xb8>
100004ac:	f7ff ff9a 	bl	100003e4 <board_millis>
100004b0:	4240      	negs	r0, r0
100004b2:	60b0      	str	r0, [r6, #8]
100004b4:	2380      	movs	r3, #128	; 0x80
100004b6:	049b      	lsls	r3, r3, #18
100004b8:	61bb      	str	r3, [r7, #24]
100004ba:	e7c0      	b.n	1000043e <pushing+0x3a>
100004bc:	592b      	ldr	r3, [r5, r4]
100004be:	2b70      	cmp	r3, #112	; 0x70
100004c0:	d1c7      	bne.n	10000452 <pushing+0x4e>
100004c2:	27d0      	movs	r7, #208	; 0xd0
100004c4:	1966      	adds	r6, r4, r5
100004c6:	063f      	lsls	r7, r7, #24
100004c8:	6871      	ldr	r1, [r6, #4]
100004ca:	687b      	ldr	r3, [r7, #4]
100004cc:	2201      	movs	r2, #1
100004ce:	40cb      	lsrs	r3, r1
100004d0:	4213      	tst	r3, r2
100004d2:	d0b4      	beq.n	1000043e <pushing+0x3a>
100004d4:	687b      	ldr	r3, [r7, #4]
100004d6:	40cb      	lsrs	r3, r1
100004d8:	4213      	tst	r3, r2
100004da:	d0b0      	beq.n	1000043e <pushing+0x3a>
100004dc:	68b3      	ldr	r3, [r6, #8]
100004de:	2b00      	cmp	r3, #0
100004e0:	d0ad      	beq.n	1000043e <pushing+0x3a>
100004e2:	2080      	movs	r0, #128	; 0x80
100004e4:	5963      	ldr	r3, [r4, r5]
100004e6:	4318      	orrs	r0, r3
100004e8:	f7ff ff5c 	bl	100003a4 <send98>
100004ec:	2300      	movs	r3, #0
100004ee:	60b3      	str	r3, [r6, #8]
100004f0:	60f3      	str	r3, [r6, #12]
100004f2:	2380      	movs	r3, #128	; 0x80
100004f4:	049b      	lsls	r3, r3, #18
100004f6:	61bb      	str	r3, [r7, #24]
100004f8:	2380      	movs	r3, #128	; 0x80
100004fa:	5960      	ldr	r0, [r4, r5]
100004fc:	4318      	orrs	r0, r3
100004fe:	f7ff ff51 	bl	100003a4 <send98>
10000502:	e79c      	b.n	1000043e <pushing+0x3a>
10000504:	58e3      	ldr	r3, [r4, r3]
10000506:	9301      	str	r3, [sp, #4]
10000508:	2b70      	cmp	r3, #112	; 0x70
1000050a:	d0da      	beq.n	100004c2 <pushing+0xbe>
1000050c:	9a00      	ldr	r2, [sp, #0]
1000050e:	687b      	ldr	r3, [r7, #4]
10000510:	18a6      	adds	r6, r4, r2
10000512:	6872      	ldr	r2, [r6, #4]
10000514:	40d3      	lsrs	r3, r2
10000516:	2201      	movs	r2, #1
10000518:	0019      	movs	r1, r3
1000051a:	4011      	ands	r1, r2
1000051c:	9100      	str	r1, [sp, #0]
1000051e:	4213      	tst	r3, r2
10000520:	d1cf      	bne.n	100004c2 <pushing+0xbe>
10000522:	68f3      	ldr	r3, [r6, #12]
10000524:	2b01      	cmp	r3, #1
10000526:	d1cc      	bne.n	100004c2 <pushing+0xbe>
10000528:	68b3      	ldr	r3, [r6, #8]
1000052a:	2b00      	cmp	r3, #0
1000052c:	dac9      	bge.n	100004c2 <pushing+0xbe>
1000052e:	f7ff ff59 	bl	100003e4 <board_millis>
10000532:	68b3      	ldr	r3, [r6, #8]
10000534:	18c0      	adds	r0, r0, r3
10000536:	281d      	cmp	r0, #29
10000538:	ddc3      	ble.n	100004c2 <pushing+0xbe>
1000053a:	f7ff ff53 	bl	100003e4 <board_millis>
1000053e:	9b00      	ldr	r3, [sp, #0]
10000540:	4240      	negs	r0, r0
10000542:	60b0      	str	r0, [r6, #8]
10000544:	60f3      	str	r3, [r6, #12]
10000546:	e7b5      	b.n	100004b4 <pushing+0xb0>
10000548:	200003c4 	.word	0x200003c4

1000054c <HSV2RGB>:
1000054c:	b5f8      	push	{r3, r4, r5, r6, r7, lr}
1000054e:	0003      	movs	r3, r0
10000550:	0010      	movs	r0, r2
10000552:	2b00      	cmp	r3, #0
10000554:	da03      	bge.n	1000055e <HSV2RGB+0x12>
10000556:	3369      	adds	r3, #105	; 0x69
10000558:	33ff      	adds	r3, #255	; 0xff
1000055a:	001d      	movs	r5, r3
1000055c:	e006      	b.n	1000056c <HSV2RGB+0x20>
1000055e:	001d      	movs	r5, r3
10000560:	22b4      	movs	r2, #180	; 0xb4
10000562:	3d69      	subs	r5, #105	; 0x69
10000564:	3dff      	subs	r5, #255	; 0xff
10000566:	0052      	lsls	r2, r2, #1
10000568:	4293      	cmp	r3, r2
1000056a:	ddf6      	ble.n	1000055a <HSV2RGB+0xe>
1000056c:	4348      	muls	r0, r1
1000056e:	4b2a      	ldr	r3, [pc, #168]	; (10000618 <HSV2RGB+0xcc>)
10000570:	3d69      	subs	r5, #105	; 0x69
10000572:	6018      	str	r0, [r3, #0]
10000574:	4b29      	ldr	r3, [pc, #164]	; (1000061c <HSV2RGB+0xd0>)
10000576:	3dff      	subs	r5, #255	; 0xff
10000578:	402b      	ands	r3, r5
1000057a:	d504      	bpl.n	10000586 <HSV2RGB+0x3a>
1000057c:	2202      	movs	r2, #2
1000057e:	3b01      	subs	r3, #1
10000580:	4252      	negs	r2, r2
10000582:	4313      	orrs	r3, r2
10000584:	3301      	adds	r3, #1
10000586:	4343      	muls	r3, r0
10000588:	001c      	movs	r4, r3
1000058a:	4b25      	ldr	r3, [pc, #148]	; (10000620 <HSV2RGB+0xd4>)
1000058c:	601c      	str	r4, [r3, #0]
1000058e:	f001 fdb1 	bl	100020f4 <__wrap___aeabi_i2f>
10000592:	1c06      	adds	r6, r0, #0
10000594:	0020      	movs	r0, r4
10000596:	f001 fdad 	bl	100020f4 <__wrap___aeabi_i2f>
1000059a:	1c03      	adds	r3, r0, #0
1000059c:	1e68      	subs	r0, r5, #1
1000059e:	2200      	movs	r2, #0
100005a0:	4d20      	ldr	r5, [pc, #128]	; (10000624 <HSV2RGB+0xd8>)
100005a2:	4f21      	ldr	r7, [pc, #132]	; (10000628 <HSV2RGB+0xdc>)
100005a4:	4c21      	ldr	r4, [pc, #132]	; (1000062c <HSV2RGB+0xe0>)
100005a6:	2804      	cmp	r0, #4
100005a8:	d832      	bhi.n	10000610 <HSV2RGB+0xc4>
100005aa:	f001 ffc5 	bl	10002538 <____gnu_thumb1_case_uqi_veneer>
100005ae:	0703      	.short	0x0703
100005b0:	2b0b      	.short	0x2b0b
100005b2:	2e          	.byte	0x2e
100005b3:	00          	.byte	0x00
100005b4:	602b      	str	r3, [r5, #0]
100005b6:	603e      	str	r6, [r7, #0]
100005b8:	6022      	str	r2, [r4, #0]
100005ba:	e006      	b.n	100005ca <HSV2RGB+0x7e>
100005bc:	602a      	str	r2, [r5, #0]
100005be:	603e      	str	r6, [r7, #0]
100005c0:	6023      	str	r3, [r4, #0]
100005c2:	e002      	b.n	100005ca <HSV2RGB+0x7e>
100005c4:	602a      	str	r2, [r5, #0]
100005c6:	603b      	str	r3, [r7, #0]
100005c8:	6026      	str	r6, [r4, #0]
100005ca:	4b19      	ldr	r3, [pc, #100]	; (10000630 <HSV2RGB+0xe4>)
100005cc:	6818      	ldr	r0, [r3, #0]
100005ce:	f001 fd91 	bl	100020f4 <__wrap___aeabi_i2f>
100005d2:	6829      	ldr	r1, [r5, #0]
100005d4:	1c06      	adds	r6, r0, #0
100005d6:	f001 fd6f 	bl	100020b8 <__wrap___aeabi_fadd>
100005da:	4916      	ldr	r1, [pc, #88]	; (10000634 <HSV2RGB+0xe8>)
100005dc:	f001 fd83 	bl	100020e6 <__wrap___aeabi_fmul>
100005e0:	6839      	ldr	r1, [r7, #0]
100005e2:	6028      	str	r0, [r5, #0]
100005e4:	1c30      	adds	r0, r6, #0
100005e6:	f001 fd67 	bl	100020b8 <__wrap___aeabi_fadd>
100005ea:	4912      	ldr	r1, [pc, #72]	; (10000634 <HSV2RGB+0xe8>)
100005ec:	f001 fd7b 	bl	100020e6 <__wrap___aeabi_fmul>
100005f0:	6821      	ldr	r1, [r4, #0]
100005f2:	6038      	str	r0, [r7, #0]
100005f4:	1c30      	adds	r0, r6, #0
100005f6:	f001 fd5f 	bl	100020b8 <__wrap___aeabi_fadd>
100005fa:	490e      	ldr	r1, [pc, #56]	; (10000634 <HSV2RGB+0xe8>)
100005fc:	f001 fd73 	bl	100020e6 <__wrap___aeabi_fmul>
10000600:	6020      	str	r0, [r4, #0]
10000602:	bdf8      	pop	{r3, r4, r5, r6, r7, pc}
10000604:	602b      	str	r3, [r5, #0]
10000606:	603a      	str	r2, [r7, #0]
10000608:	e7de      	b.n	100005c8 <HSV2RGB+0x7c>
1000060a:	602e      	str	r6, [r5, #0]
1000060c:	603a      	str	r2, [r7, #0]
1000060e:	e7d7      	b.n	100005c0 <HSV2RGB+0x74>
10000610:	602e      	str	r6, [r5, #0]
10000612:	603b      	str	r3, [r7, #0]
10000614:	e7d0      	b.n	100005b8 <HSV2RGB+0x6c>
10000616:	46c0      	nop			; (mov r8, r8)
10000618:	2000037c 	.word	0x2000037c
1000061c:	80000001 	.word	0x80000001
10000620:	20000380 	.word	0x20000380
10000624:	2000018c 	.word	0x2000018c
10000628:	20000188 	.word	0x20000188
1000062c:	20000184 	.word	0x20000184
10000630:	20000468 	.word	0x20000468
10000634:	437f0000 	.word	0x437f0000

10000638 <sendNP_ll>:
10000638:	b570      	push	{r4, r5, r6, lr}
1000063a:	2401      	movs	r4, #1
1000063c:	25d0      	movs	r5, #208	; 0xd0
1000063e:	4084      	lsls	r4, r0
10000640:	062d      	lsls	r5, r5, #24
10000642:	616c      	str	r4, [r5, #20]
10000644:	2000      	movs	r0, #0
10000646:	2100      	movs	r1, #0
10000648:	f000 fcb2 	bl	10000fb0 <sleep_us>
1000064c:	61ac      	str	r4, [r5, #24]
1000064e:	2001      	movs	r0, #1
10000650:	2100      	movs	r1, #0
10000652:	f000 fcad 	bl	10000fb0 <sleep_us>
10000656:	bd70      	pop	{r4, r5, r6, pc}

10000658 <sendNP_hl>:
10000658:	b570      	push	{r4, r5, r6, lr}
1000065a:	2401      	movs	r4, #1
1000065c:	25d0      	movs	r5, #208	; 0xd0
1000065e:	4084      	lsls	r4, r0
10000660:	062d      	lsls	r5, r5, #24
10000662:	616c      	str	r4, [r5, #20]
10000664:	2001      	movs	r0, #1
10000666:	2100      	movs	r1, #0
10000668:	f000 fca2 	bl	10000fb0 <sleep_us>
1000066c:	61ac      	str	r4, [r5, #24]
1000066e:	2000      	movs	r0, #0
10000670:	2100      	movs	r1, #0
10000672:	f000 fc9d 	bl	10000fb0 <sleep_us>
10000676:	bd70      	pop	{r4, r5, r6, pc}

10000678 <sendNPData>:
10000678:	b5f7      	push	{r0, r1, r2, r4, r5, r6, r7, lr}
1000067a:	000e      	movs	r6, r1
1000067c:	001c      	movs	r4, r3
1000067e:	2507      	movs	r5, #7
10000680:	2701      	movs	r7, #1
10000682:	9000      	str	r0, [sp, #0]
10000684:	9201      	str	r2, [sp, #4]
10000686:	0033      	movs	r3, r6
10000688:	412b      	asrs	r3, r5
1000068a:	0020      	movs	r0, r4
1000068c:	423b      	tst	r3, r7
1000068e:	d01a      	beq.n	100006c6 <sendNPData+0x4e>
10000690:	f7ff ffe2 	bl	10000658 <sendNP_hl>
10000694:	3d01      	subs	r5, #1
10000696:	d2f6      	bcs.n	10000686 <sendNPData+0xe>
10000698:	2507      	movs	r5, #7
1000069a:	2601      	movs	r6, #1
1000069c:	9b00      	ldr	r3, [sp, #0]
1000069e:	0020      	movs	r0, r4
100006a0:	412b      	asrs	r3, r5
100006a2:	4233      	tst	r3, r6
100006a4:	d012      	beq.n	100006cc <sendNPData+0x54>
100006a6:	f7ff ffd7 	bl	10000658 <sendNP_hl>
100006aa:	3d01      	subs	r5, #1
100006ac:	d2f6      	bcs.n	1000069c <sendNPData+0x24>
100006ae:	2507      	movs	r5, #7
100006b0:	2601      	movs	r6, #1
100006b2:	9b01      	ldr	r3, [sp, #4]
100006b4:	0020      	movs	r0, r4
100006b6:	412b      	asrs	r3, r5
100006b8:	4233      	tst	r3, r6
100006ba:	d00a      	beq.n	100006d2 <sendNPData+0x5a>
100006bc:	f7ff ffcc 	bl	10000658 <sendNP_hl>
100006c0:	3d01      	subs	r5, #1
100006c2:	d2f6      	bcs.n	100006b2 <sendNPData+0x3a>
100006c4:	bdf7      	pop	{r0, r1, r2, r4, r5, r6, r7, pc}
100006c6:	f7ff ffb7 	bl	10000638 <sendNP_ll>
100006ca:	e7e3      	b.n	10000694 <sendNPData+0x1c>
100006cc:	f7ff ffb4 	bl	10000638 <sendNP_ll>
100006d0:	e7eb      	b.n	100006aa <sendNPData+0x32>
100006d2:	f7ff ffb1 	bl	10000638 <sendNP_ll>
100006d6:	e7f3      	b.n	100006c0 <sendNPData+0x48>

100006d8 <main>:
100006d8:	b57f      	push	{r0, r1, r2, r3, r4, r5, r6, lr}
100006da:	f001 fe64 	bl	100023a6 <stdio_init_all>
100006de:	482f      	ldr	r0, [pc, #188]	; (1000079c <main+0xc4>)
100006e0:	ab03      	add	r3, sp, #12
100006e2:	aa02      	add	r2, sp, #8
100006e4:	a901      	add	r1, sp, #4
100006e6:	f000 f89d 	bl	10000824 <check_sys_clock_khz>
100006ea:	2800      	cmp	r0, #0
100006ec:	d051      	beq.n	10000792 <main+0xba>
100006ee:	24d0      	movs	r4, #208	; 0xd0
100006f0:	2604      	movs	r6, #4
100006f2:	9a03      	ldr	r2, [sp, #12]
100006f4:	9902      	ldr	r1, [sp, #8]
100006f6:	9801      	ldr	r0, [sp, #4]
100006f8:	f000 f858 	bl	100007ac <set_sys_clock_pll>
100006fc:	0624      	lsls	r4, r4, #24
100006fe:	2002      	movs	r0, #2
10000700:	f000 f902 	bl	10000908 <gpio_init>
10000704:	2003      	movs	r0, #3
10000706:	62a6      	str	r6, [r4, #40]	; 0x28
10000708:	f000 f8fe 	bl	10000908 <gpio_init>
1000070c:	2308      	movs	r3, #8
1000070e:	2019      	movs	r0, #25
10000710:	62a3      	str	r3, [r4, #40]	; 0x28
10000712:	f000 f8f9 	bl	10000908 <gpio_init>
10000716:	2380      	movs	r3, #128	; 0x80
10000718:	2196      	movs	r1, #150	; 0x96
1000071a:	4d21      	ldr	r5, [pc, #132]	; (100007a0 <main+0xc8>)
1000071c:	049b      	lsls	r3, r3, #18
1000071e:	6263      	str	r3, [r4, #36]	; 0x24
10000720:	0028      	movs	r0, r5
10000722:	01c9      	lsls	r1, r1, #7
10000724:	f000 f98a 	bl	10000a3c <uart_init>
10000728:	2102      	movs	r1, #2
1000072a:	0030      	movs	r0, r6
1000072c:	f000 f8c0 	bl	100008b0 <gpio_set_function>
10000730:	2362      	movs	r3, #98	; 0x62
10000732:	6aea      	ldr	r2, [r5, #44]	; 0x2c
10000734:	20fa      	movs	r0, #250	; 0xfa
10000736:	4053      	eors	r3, r2
10000738:	226e      	movs	r2, #110	; 0x6e
1000073a:	4013      	ands	r3, r2
1000073c:	4a19      	ldr	r2, [pc, #100]	; (100007a4 <main+0xcc>)
1000073e:	0080      	lsls	r0, r0, #2
10000740:	6013      	str	r3, [r2, #0]
10000742:	f000 fc4b 	bl	10000fdc <sleep_ms>
10000746:	2006      	movs	r0, #6
10000748:	f000 f8de 	bl	10000908 <gpio_init>
1000074c:	2340      	movs	r3, #64	; 0x40
1000074e:	6263      	str	r3, [r4, #36]	; 0x24
10000750:	f7ff fdf4 	bl	1000033c <init_keys>
10000754:	2501      	movs	r5, #1
10000756:	2400      	movs	r4, #0
10000758:	0020      	movs	r0, r4
1000075a:	3401      	adds	r4, #1
1000075c:	f7ff fe52 	bl	10000404 <pushing>
10000760:	2c0a      	cmp	r4, #10
10000762:	d1f9      	bne.n	10000758 <main+0x80>
10000764:	002a      	movs	r2, r5
10000766:	0029      	movs	r1, r5
10000768:	2000      	movs	r0, #0
1000076a:	f7ff feef 	bl	1000054c <HSV2RGB>
1000076e:	23d0      	movs	r3, #208	; 0xd0
10000770:	2240      	movs	r2, #64	; 0x40
10000772:	061b      	lsls	r3, r3, #24
10000774:	2064      	movs	r0, #100	; 0x64
10000776:	2100      	movs	r1, #0
10000778:	619a      	str	r2, [r3, #24]
1000077a:	f000 fc19 	bl	10000fb0 <sleep_us>
1000077e:	2200      	movs	r2, #0
10000780:	2306      	movs	r3, #6
10000782:	0011      	movs	r1, r2
10000784:	0010      	movs	r0, r2
10000786:	3c01      	subs	r4, #1
10000788:	f7ff ff76 	bl	10000678 <sendNPData>
1000078c:	2c00      	cmp	r4, #0
1000078e:	d1f6      	bne.n	1000077e <main+0xa6>
10000790:	e7e1      	b.n	10000756 <main+0x7e>
10000792:	4902      	ldr	r1, [pc, #8]	; (1000079c <main+0xc4>)
10000794:	4804      	ldr	r0, [pc, #16]	; (100007a8 <main+0xd0>)
10000796:	f000 fec1 	bl	1000151c <panic>
1000079a:	46c0      	nop			; (mov r8, r8)
1000079c:	0001e848 	.word	0x0001e848
100007a0:	40038000 	.word	0x40038000
100007a4:	4003902c 	.word	0x4003902c
100007a8:	10002558 	.word	0x10002558

100007ac <set_sys_clock_pll>:
100007ac:	b5f0      	push	{r4, r5, r6, r7, lr}
100007ae:	b085      	sub	sp, #20
100007b0:	0006      	movs	r6, r0
100007b2:	000f      	movs	r7, r1
100007b4:	9203      	str	r2, [sp, #12]
100007b6:	f000 f8f1 	bl	1000099c <running_on_fpga>
100007ba:	1e04      	subs	r4, r0, #0
100007bc:	d12a      	bne.n	10000814 <set_sys_clock_pll+0x68>
100007be:	2201      	movs	r2, #1
100007c0:	4d15      	ldr	r5, [pc, #84]	; (10000818 <set_sys_clock_pll+0x6c>)
100007c2:	0011      	movs	r1, r2
100007c4:	002b      	movs	r3, r5
100007c6:	2005      	movs	r0, #5
100007c8:	9500      	str	r5, [sp, #0]
100007ca:	f000 fec3 	bl	10001554 <clock_configure>
100007ce:	9b03      	ldr	r3, [sp, #12]
100007d0:	0032      	movs	r2, r6
100007d2:	2101      	movs	r1, #1
100007d4:	4811      	ldr	r0, [pc, #68]	; (1000081c <set_sys_clock_pll+0x70>)
100007d6:	9300      	str	r3, [sp, #0]
100007d8:	003b      	movs	r3, r7
100007da:	f001 f917 	bl	10001a0c <pll_init>
100007de:	9903      	ldr	r1, [sp, #12]
100007e0:	0030      	movs	r0, r6
100007e2:	4379      	muls	r1, r7
100007e4:	f001 f9c6 	bl	10001b74 <__wrap___aeabi_uidiv>
100007e8:	0006      	movs	r6, r0
100007ea:	4b0d      	ldr	r3, [pc, #52]	; (10000820 <set_sys_clock_pll+0x74>)
100007ec:	0022      	movs	r2, r4
100007ee:	2102      	movs	r1, #2
100007f0:	9300      	str	r3, [sp, #0]
100007f2:	2004      	movs	r0, #4
100007f4:	f000 feae 	bl	10001554 <clock_configure>
100007f8:	0033      	movs	r3, r6
100007fa:	0022      	movs	r2, r4
100007fc:	2101      	movs	r1, #1
100007fe:	2005      	movs	r0, #5
10000800:	9600      	str	r6, [sp, #0]
10000802:	f000 fea7 	bl	10001554 <clock_configure>
10000806:	002b      	movs	r3, r5
10000808:	2202      	movs	r2, #2
1000080a:	0021      	movs	r1, r4
1000080c:	2006      	movs	r0, #6
1000080e:	9500      	str	r5, [sp, #0]
10000810:	f000 fea0 	bl	10001554 <clock_configure>
10000814:	b005      	add	sp, #20
10000816:	bdf0      	pop	{r4, r5, r6, r7, pc}
10000818:	02dc6c00 	.word	0x02dc6c00
1000081c:	40028000 	.word	0x40028000
10000820:	00b71b00 	.word	0x00b71b00

10000824 <check_sys_clock_khz>:
10000824:	b5f0      	push	{r4, r5, r6, r7, lr}
10000826:	b087      	sub	sp, #28
10000828:	9002      	str	r0, [sp, #8]
1000082a:	2004      	movs	r0, #4
1000082c:	9103      	str	r1, [sp, #12]
1000082e:	9204      	str	r2, [sp, #16]
10000830:	9305      	str	r3, [sp, #20]
10000832:	f000 ff71 	bl	10001718 <clock_get_hz>
10000836:	21fa      	movs	r1, #250	; 0xfa
10000838:	26a0      	movs	r6, #160	; 0xa0
1000083a:	0089      	lsls	r1, r1, #2
1000083c:	f001 f99a 	bl	10001b74 <__wrap___aeabi_uidiv>
10000840:	2532      	movs	r5, #50	; 0x32
10000842:	0076      	lsls	r6, r6, #1
10000844:	4346      	muls	r6, r0
10000846:	9001      	str	r0, [sp, #4]
10000848:	35ff      	adds	r5, #255	; 0xff
1000084a:	4b17      	ldr	r3, [pc, #92]	; (100008a8 <check_sys_clock_khz+0x84>)
1000084c:	4a17      	ldr	r2, [pc, #92]	; (100008ac <check_sys_clock_khz+0x88>)
1000084e:	18f3      	adds	r3, r6, r3
10000850:	2407      	movs	r4, #7
10000852:	4293      	cmp	r3, r2
10000854:	d90f      	bls.n	10000876 <check_sys_clock_khz+0x52>
10000856:	9b01      	ldr	r3, [sp, #4]
10000858:	3d01      	subs	r5, #1
1000085a:	1af6      	subs	r6, r6, r3
1000085c:	2d00      	cmp	r5, #0
1000085e:	d1f4      	bne.n	1000084a <check_sys_clock_khz+0x26>
10000860:	0028      	movs	r0, r5
10000862:	e01f      	b.n	100008a4 <check_sys_clock_khz+0x80>
10000864:	9b00      	ldr	r3, [sp, #0]
10000866:	3f01      	subs	r7, #1
10000868:	1b1b      	subs	r3, r3, r4
1000086a:	9300      	str	r3, [sp, #0]
1000086c:	2f00      	cmp	r7, #0
1000086e:	d106      	bne.n	1000087e <check_sys_clock_khz+0x5a>
10000870:	3c01      	subs	r4, #1
10000872:	2c00      	cmp	r4, #0
10000874:	d0ef      	beq.n	10000856 <check_sys_clock_khz+0x32>
10000876:	0023      	movs	r3, r4
10000878:	0027      	movs	r7, r4
1000087a:	4363      	muls	r3, r4
1000087c:	9300      	str	r3, [sp, #0]
1000087e:	0030      	movs	r0, r6
10000880:	9900      	ldr	r1, [sp, #0]
10000882:	f001 f977 	bl	10001b74 <__wrap___aeabi_uidiv>
10000886:	9b02      	ldr	r3, [sp, #8]
10000888:	4298      	cmp	r0, r3
1000088a:	d1eb      	bne.n	10000864 <check_sys_clock_khz+0x40>
1000088c:	2900      	cmp	r1, #0
1000088e:	d1e9      	bne.n	10000864 <check_sys_clock_khz+0x40>
10000890:	23fa      	movs	r3, #250	; 0xfa
10000892:	2001      	movs	r0, #1
10000894:	009b      	lsls	r3, r3, #2
10000896:	435e      	muls	r6, r3
10000898:	9b03      	ldr	r3, [sp, #12]
1000089a:	601e      	str	r6, [r3, #0]
1000089c:	9b04      	ldr	r3, [sp, #16]
1000089e:	601c      	str	r4, [r3, #0]
100008a0:	9b05      	ldr	r3, [sp, #20]
100008a2:	601f      	str	r7, [r3, #0]
100008a4:	b007      	add	sp, #28
100008a6:	bdf0      	pop	{r4, r5, r6, r7, pc}
100008a8:	fff9e580 	.word	0xfff9e580
100008ac:	00124f80 	.word	0x00124f80

100008b0 <gpio_set_function>:
100008b0:	4b08      	ldr	r3, [pc, #32]	; (100008d4 <gpio_set_function+0x24>)
100008b2:	0082      	lsls	r2, r0, #2
100008b4:	18d2      	adds	r2, r2, r3
100008b6:	2340      	movs	r3, #64	; 0x40
100008b8:	b510      	push	{r4, lr}
100008ba:	6814      	ldr	r4, [r2, #0]
100008bc:	00c0      	lsls	r0, r0, #3
100008be:	4063      	eors	r3, r4
100008c0:	24c0      	movs	r4, #192	; 0xc0
100008c2:	4023      	ands	r3, r4
100008c4:	2480      	movs	r4, #128	; 0x80
100008c6:	0164      	lsls	r4, r4, #5
100008c8:	4322      	orrs	r2, r4
100008ca:	6013      	str	r3, [r2, #0]
100008cc:	4b02      	ldr	r3, [pc, #8]	; (100008d8 <gpio_set_function+0x28>)
100008ce:	18c0      	adds	r0, r0, r3
100008d0:	6041      	str	r1, [r0, #4]
100008d2:	bd10      	pop	{r4, pc}
100008d4:	4001c004 	.word	0x4001c004
100008d8:	40014000 	.word	0x40014000

100008dc <gpio_set_pulls>:
100008dc:	4b09      	ldr	r3, [pc, #36]	; (10000904 <gpio_set_pulls+0x28>)
100008de:	0080      	lsls	r0, r0, #2
100008e0:	18c0      	adds	r0, r0, r3
100008e2:	1e4b      	subs	r3, r1, #1
100008e4:	4199      	sbcs	r1, r3
100008e6:	1e53      	subs	r3, r2, #1
100008e8:	419a      	sbcs	r2, r3
100008ea:	00c9      	lsls	r1, r1, #3
100008ec:	6803      	ldr	r3, [r0, #0]
100008ee:	0092      	lsls	r2, r2, #2
100008f0:	4311      	orrs	r1, r2
100008f2:	4059      	eors	r1, r3
100008f4:	2380      	movs	r3, #128	; 0x80
100008f6:	220c      	movs	r2, #12
100008f8:	015b      	lsls	r3, r3, #5
100008fa:	4011      	ands	r1, r2
100008fc:	4318      	orrs	r0, r3
100008fe:	6001      	str	r1, [r0, #0]
10000900:	4770      	bx	lr
10000902:	46c0      	nop			; (mov r8, r8)
10000904:	4001c004 	.word	0x4001c004

10000908 <gpio_init>:
10000908:	2301      	movs	r3, #1
1000090a:	22d0      	movs	r2, #208	; 0xd0
1000090c:	4083      	lsls	r3, r0
1000090e:	b510      	push	{r4, lr}
10000910:	0612      	lsls	r2, r2, #24
10000912:	6293      	str	r3, [r2, #40]	; 0x28
10000914:	2105      	movs	r1, #5
10000916:	6193      	str	r3, [r2, #24]
10000918:	f7ff ffca 	bl	100008b0 <gpio_set_function>
1000091c:	bd10      	pop	{r4, pc}
	...

10000920 <hw_claim_lock>:
10000920:	f3ef 8010 	mrs	r0, PRIMASK
10000924:	b672      	cpsid	i
10000926:	4a03      	ldr	r2, [pc, #12]	; (10000934 <hw_claim_lock+0x14>)
10000928:	6813      	ldr	r3, [r2, #0]
1000092a:	2b00      	cmp	r3, #0
1000092c:	d0fc      	beq.n	10000928 <hw_claim_lock+0x8>
1000092e:	f3bf 8f5f 	dmb	sy
10000932:	4770      	bx	lr
10000934:	d000012c 	.word	0xd000012c

10000938 <hw_claim_unlock>:
10000938:	f3bf 8f5f 	dmb	sy
1000093c:	2200      	movs	r2, #0
1000093e:	4b02      	ldr	r3, [pc, #8]	; (10000948 <hw_claim_unlock+0x10>)
10000940:	601a      	str	r2, [r3, #0]
10000942:	f380 8810 	msr	PRIMASK, r0
10000946:	4770      	bx	lr
10000948:	d000012c 	.word	0xd000012c

1000094c <hw_is_claimed>:
1000094c:	2207      	movs	r2, #7
1000094e:	08cb      	lsrs	r3, r1, #3
10000950:	5cc3      	ldrb	r3, [r0, r3]
10000952:	2001      	movs	r0, #1
10000954:	4011      	ands	r1, r2
10000956:	4088      	lsls	r0, r1
10000958:	4018      	ands	r0, r3
1000095a:	1e43      	subs	r3, r0, #1
1000095c:	4198      	sbcs	r0, r3
1000095e:	b2c0      	uxtb	r0, r0
10000960:	4770      	bx	lr

10000962 <hw_claim_or_assert>:
10000962:	b5f8      	push	{r3, r4, r5, r6, r7, lr}
10000964:	0005      	movs	r5, r0
10000966:	000c      	movs	r4, r1
10000968:	0017      	movs	r7, r2
1000096a:	f7ff ffd9 	bl	10000920 <hw_claim_lock>
1000096e:	0021      	movs	r1, r4
10000970:	0006      	movs	r6, r0
10000972:	0028      	movs	r0, r5
10000974:	f7ff ffea 	bl	1000094c <hw_is_claimed>
10000978:	2800      	cmp	r0, #0
1000097a:	d003      	beq.n	10000984 <hw_claim_or_assert+0x22>
1000097c:	0021      	movs	r1, r4
1000097e:	0038      	movs	r0, r7
10000980:	f000 fdcc 	bl	1000151c <panic>
10000984:	2107      	movs	r1, #7
10000986:	2301      	movs	r3, #1
10000988:	08e2      	lsrs	r2, r4, #3
1000098a:	400c      	ands	r4, r1
1000098c:	40a3      	lsls	r3, r4
1000098e:	5ca9      	ldrb	r1, [r5, r2]
10000990:	0030      	movs	r0, r6
10000992:	430b      	orrs	r3, r1
10000994:	54ab      	strb	r3, [r5, r2]
10000996:	f7ff ffcf 	bl	10000938 <hw_claim_unlock>
1000099a:	bdf8      	pop	{r3, r4, r5, r6, r7, pc}

1000099c <running_on_fpga>:
1000099c:	4b02      	ldr	r3, [pc, #8]	; (100009a8 <running_on_fpga+0xc>)
1000099e:	6818      	ldr	r0, [r3, #0]
100009a0:	0780      	lsls	r0, r0, #30
100009a2:	0fc0      	lsrs	r0, r0, #31
100009a4:	4770      	bx	lr
100009a6:	46c0      	nop			; (mov r8, r8)
100009a8:	4006c000 	.word	0x4006c000

100009ac <spin_locks_reset>:
100009ac:	2100      	movs	r1, #0
100009ae:	4b04      	ldr	r3, [pc, #16]	; (100009c0 <spin_locks_reset+0x14>)
100009b0:	4a04      	ldr	r2, [pc, #16]	; (100009c4 <spin_locks_reset+0x18>)
100009b2:	f3bf 8f5f 	dmb	sy
100009b6:	c302      	stmia	r3!, {r1}
100009b8:	4293      	cmp	r3, r2
100009ba:	d1fa      	bne.n	100009b2 <spin_locks_reset+0x6>
100009bc:	4770      	bx	lr
100009be:	46c0      	nop			; (mov r8, r8)
100009c0:	d0000100 	.word	0xd0000100
100009c4:	d0000180 	.word	0xd0000180

100009c8 <next_striped_spin_lock_num>:
100009c8:	4a04      	ldr	r2, [pc, #16]	; (100009dc <next_striped_spin_lock_num+0x14>)
100009ca:	7810      	ldrb	r0, [r2, #0]
100009cc:	1c43      	adds	r3, r0, #1
100009ce:	b2db      	uxtb	r3, r3
100009d0:	2b17      	cmp	r3, #23
100009d2:	d801      	bhi.n	100009d8 <next_striped_spin_lock_num+0x10>
100009d4:	7013      	strb	r3, [r2, #0]
100009d6:	4770      	bx	lr
100009d8:	2310      	movs	r3, #16
100009da:	e7fb      	b.n	100009d4 <next_striped_spin_lock_num+0xc>
100009dc:	20000190 	.word	0x20000190

100009e0 <uart_set_baudrate>:
100009e0:	b570      	push	{r4, r5, r6, lr}
100009e2:	0006      	movs	r6, r0
100009e4:	2006      	movs	r0, #6
100009e6:	000c      	movs	r4, r1
100009e8:	f000 fe96 	bl	10001718 <clock_get_hz>
100009ec:	0021      	movs	r1, r4
100009ee:	00c0      	lsls	r0, r0, #3
100009f0:	f001 f8c0 	bl	10001b74 <__wrap___aeabi_uidiv>
100009f4:	2401      	movs	r4, #1
100009f6:	09c5      	lsrs	r5, r0, #7
100009f8:	d007      	beq.n	10000a0a <uart_set_baudrate+0x2a>
100009fa:	4b0e      	ldr	r3, [pc, #56]	; (10000a34 <uart_set_baudrate+0x54>)
100009fc:	429d      	cmp	r5, r3
100009fe:	d815      	bhi.n	10000a2c <uart_set_baudrate+0x4c>
10000a00:	237f      	movs	r3, #127	; 0x7f
10000a02:	4018      	ands	r0, r3
10000a04:	1900      	adds	r0, r0, r4
10000a06:	002c      	movs	r4, r5
10000a08:	0845      	lsrs	r5, r0, #1
10000a0a:	2080      	movs	r0, #128	; 0x80
10000a0c:	2300      	movs	r3, #0
10000a0e:	6274      	str	r4, [r6, #36]	; 0x24
10000a10:	0180      	lsls	r0, r0, #6
10000a12:	62b5      	str	r5, [r6, #40]	; 0x28
10000a14:	362c      	adds	r6, #44	; 0x2c
10000a16:	4306      	orrs	r6, r0
10000a18:	6033      	str	r3, [r6, #0]
10000a1a:	2006      	movs	r0, #6
10000a1c:	f000 fe7c 	bl	10001718 <clock_get_hz>
10000a20:	01a1      	lsls	r1, r4, #6
10000a22:	1949      	adds	r1, r1, r5
10000a24:	0080      	lsls	r0, r0, #2
10000a26:	f001 f8a5 	bl	10001b74 <__wrap___aeabi_uidiv>
10000a2a:	bd70      	pop	{r4, r5, r6, pc}
10000a2c:	2500      	movs	r5, #0
10000a2e:	4c02      	ldr	r4, [pc, #8]	; (10000a38 <uart_set_baudrate+0x58>)
10000a30:	e7eb      	b.n	10000a0a <uart_set_baudrate+0x2a>
10000a32:	46c0      	nop			; (mov r8, r8)
10000a34:	0000fffe 	.word	0x0000fffe
10000a38:	0000ffff 	.word	0x0000ffff

10000a3c <uart_init>:
10000a3c:	b570      	push	{r4, r5, r6, lr}
10000a3e:	0004      	movs	r4, r0
10000a40:	2006      	movs	r0, #6
10000a42:	000d      	movs	r5, r1
10000a44:	f000 fe68 	bl	10001718 <clock_get_hz>
10000a48:	2800      	cmp	r0, #0
10000a4a:	d02e      	beq.n	10000aaa <uart_init+0x6e>
10000a4c:	4b19      	ldr	r3, [pc, #100]	; (10000ab4 <uart_init+0x78>)
10000a4e:	429c      	cmp	r4, r3
10000a50:	d02c      	beq.n	10000aac <uart_init+0x70>
10000a52:	2380      	movs	r3, #128	; 0x80
10000a54:	03db      	lsls	r3, r3, #15
10000a56:	4a18      	ldr	r2, [pc, #96]	; (10000ab8 <uart_init+0x7c>)
10000a58:	4918      	ldr	r1, [pc, #96]	; (10000abc <uart_init+0x80>)
10000a5a:	6013      	str	r3, [r2, #0]
10000a5c:	4a18      	ldr	r2, [pc, #96]	; (10000ac0 <uart_init+0x84>)
10000a5e:	6013      	str	r3, [r2, #0]
10000a60:	0018      	movs	r0, r3
10000a62:	688a      	ldr	r2, [r1, #8]
10000a64:	4390      	bics	r0, r2
10000a66:	d1fb      	bne.n	10000a60 <uart_init+0x24>
10000a68:	4b16      	ldr	r3, [pc, #88]	; (10000ac4 <uart_init+0x88>)
10000a6a:	2180      	movs	r1, #128	; 0x80
10000a6c:	18e3      	adds	r3, r4, r3
10000a6e:	425a      	negs	r2, r3
10000a70:	4153      	adcs	r3, r2
10000a72:	4a15      	ldr	r2, [pc, #84]	; (10000ac8 <uart_init+0x8c>)
10000a74:	005b      	lsls	r3, r3, #1
10000a76:	0049      	lsls	r1, r1, #1
10000a78:	5299      	strh	r1, [r3, r2]
10000a7a:	0020      	movs	r0, r4
10000a7c:	0029      	movs	r1, r5
10000a7e:	f7ff ffaf 	bl	100009e0 <uart_set_baudrate>
10000a82:	2360      	movs	r3, #96	; 0x60
10000a84:	6ae2      	ldr	r2, [r4, #44]	; 0x2c
10000a86:	0021      	movs	r1, r4
10000a88:	4053      	eors	r3, r2
10000a8a:	226e      	movs	r2, #110	; 0x6e
10000a8c:	4013      	ands	r3, r2
10000a8e:	2280      	movs	r2, #128	; 0x80
10000a90:	312c      	adds	r1, #44	; 0x2c
10000a92:	0152      	lsls	r2, r2, #5
10000a94:	430a      	orrs	r2, r1
10000a96:	6013      	str	r3, [r2, #0]
10000a98:	4b0c      	ldr	r3, [pc, #48]	; (10000acc <uart_init+0x90>)
10000a9a:	2210      	movs	r2, #16
10000a9c:	6323      	str	r3, [r4, #48]	; 0x30
10000a9e:	2380      	movs	r3, #128	; 0x80
10000aa0:	019b      	lsls	r3, r3, #6
10000aa2:	430b      	orrs	r3, r1
10000aa4:	601a      	str	r2, [r3, #0]
10000aa6:	2303      	movs	r3, #3
10000aa8:	64a3      	str	r3, [r4, #72]	; 0x48
10000aaa:	bd70      	pop	{r4, r5, r6, pc}
10000aac:	2380      	movs	r3, #128	; 0x80
10000aae:	041b      	lsls	r3, r3, #16
10000ab0:	e7d1      	b.n	10000a56 <uart_init+0x1a>
10000ab2:	46c0      	nop			; (mov r8, r8)
10000ab4:	40038000 	.word	0x40038000
10000ab8:	4000e000 	.word	0x4000e000
10000abc:	4000c000 	.word	0x4000c000
10000ac0:	4000f000 	.word	0x4000f000
10000ac4:	bffc8000 	.word	0xbffc8000
10000ac8:	20000698 	.word	0x20000698
10000acc:	00000301 	.word	0x00000301

10000ad0 <time_reached>:
10000ad0:	b530      	push	{r4, r5, lr}
10000ad2:	4d08      	ldr	r5, [pc, #32]	; (10000af4 <time_reached+0x24>)
10000ad4:	2201      	movs	r2, #1
10000ad6:	6a6c      	ldr	r4, [r5, #36]	; 0x24
10000ad8:	2300      	movs	r3, #0
10000ada:	42a1      	cmp	r1, r4
10000adc:	d806      	bhi.n	10000aec <time_reached+0x1c>
10000ade:	6aad      	ldr	r5, [r5, #40]	; 0x28
10000ae0:	0013      	movs	r3, r2
10000ae2:	4285      	cmp	r5, r0
10000ae4:	d202      	bcs.n	10000aec <time_reached+0x1c>
10000ae6:	1b0b      	subs	r3, r1, r4
10000ae8:	1e59      	subs	r1, r3, #1
10000aea:	418b      	sbcs	r3, r1
10000aec:	4013      	ands	r3, r2
10000aee:	0018      	movs	r0, r3
10000af0:	bd30      	pop	{r4, r5, pc}
10000af2:	46c0      	nop			; (mov r8, r8)
10000af4:	40054000 	.word	0x40054000

10000af8 <timer_pool_entry_comparator>:
10000af8:	6883      	ldr	r3, [r0, #8]
10000afa:	480a      	ldr	r0, [pc, #40]	; (10000b24 <timer_pool_entry_comparator+0x2c>)
10000afc:	b510      	push	{r4, lr}
10000afe:	1809      	adds	r1, r1, r0
10000b00:	1812      	adds	r2, r2, r0
10000b02:	0112      	lsls	r2, r2, #4
10000b04:	0109      	lsls	r1, r1, #4
10000b06:	1859      	adds	r1, r3, r1
10000b08:	189b      	adds	r3, r3, r2
10000b0a:	685c      	ldr	r4, [r3, #4]
10000b0c:	684a      	ldr	r2, [r1, #4]
10000b0e:	2001      	movs	r0, #1
10000b10:	4294      	cmp	r4, r2
10000b12:	d805      	bhi.n	10000b20 <timer_pool_entry_comparator+0x28>
10000b14:	d103      	bne.n	10000b1e <timer_pool_entry_comparator+0x26>
10000b16:	681a      	ldr	r2, [r3, #0]
10000b18:	680b      	ldr	r3, [r1, #0]
10000b1a:	429a      	cmp	r2, r3
10000b1c:	d800      	bhi.n	10000b20 <timer_pool_entry_comparator+0x28>
10000b1e:	2000      	movs	r0, #0
10000b20:	b2c0      	uxtb	r0, r0
10000b22:	bd10      	pop	{r4, pc}
10000b24:	0fffffff 	.word	0x0fffffff

10000b28 <alarm_pool_post_alloc_init>:
10000b28:	b570      	push	{r4, r5, r6, lr}
10000b2a:	000c      	movs	r4, r1
10000b2c:	0005      	movs	r5, r0
10000b2e:	0008      	movs	r0, r1
10000b30:	f000 faa6 	bl	10001080 <hardware_alarm_claim>
10000b34:	0020      	movs	r0, r4
10000b36:	f000 fb6f 	bl	10001218 <hardware_alarm_cancel>
10000b3a:	0020      	movs	r0, r4
10000b3c:	4906      	ldr	r1, [pc, #24]	; (10000b58 <alarm_pool_post_alloc_init+0x30>)
10000b3e:	f000 fac3 	bl	100010c8 <hardware_alarm_set_callback>
10000b42:	f7ff ff41 	bl	100009c8 <next_striped_spin_lock_num>
10000b46:	4b05      	ldr	r3, [pc, #20]	; (10000b5c <alarm_pool_post_alloc_init+0x34>)
10000b48:	752c      	strb	r4, [r5, #20]
10000b4a:	18c0      	adds	r0, r0, r3
10000b4c:	4b04      	ldr	r3, [pc, #16]	; (10000b60 <alarm_pool_post_alloc_init+0x38>)
10000b4e:	0080      	lsls	r0, r0, #2
10000b50:	00a4      	lsls	r4, r4, #2
10000b52:	6068      	str	r0, [r5, #4]
10000b54:	50e5      	str	r5, [r4, r3]
10000b56:	bd70      	pop	{r4, r5, r6, pc}
10000b58:	10000c81 	.word	0x10000c81
10000b5c:	34000040 	.word	0x34000040
10000b60:	2000046c 	.word	0x2000046c

10000b64 <sleep_until_callback>:
10000b64:	4b0a      	ldr	r3, [pc, #40]	; (10000b90 <sleep_until_callback+0x2c>)
10000b66:	6818      	ldr	r0, [r3, #0]
10000b68:	f3ef 8210 	mrs	r2, PRIMASK
10000b6c:	b672      	cpsid	i
10000b6e:	6801      	ldr	r1, [r0, #0]
10000b70:	2900      	cmp	r1, #0
10000b72:	d0fc      	beq.n	10000b6e <sleep_until_callback+0xa>
10000b74:	f3bf 8f5f 	dmb	sy
10000b78:	681b      	ldr	r3, [r3, #0]
10000b7a:	f3bf 8f5f 	dmb	sy
10000b7e:	2100      	movs	r1, #0
10000b80:	6019      	str	r1, [r3, #0]
10000b82:	f382 8810 	msr	PRIMASK, r2
10000b86:	bf40      	sev
10000b88:	2000      	movs	r0, #0
10000b8a:	2100      	movs	r1, #0
10000b8c:	4770      	bx	lr
10000b8e:	46c0      	nop			; (mov r8, r8)
10000b90:	20000680 	.word	0x20000680

10000b94 <ph_add_child_node.isra.0>:
10000b94:	2303      	movs	r3, #3
10000b96:	b530      	push	{r4, r5, lr}
10000b98:	001c      	movs	r4, r3
10000b9a:	4353      	muls	r3, r2
10000b9c:	434c      	muls	r4, r1
10000b9e:	3b03      	subs	r3, #3
10000ba0:	18c3      	adds	r3, r0, r3
10000ba2:	3c03      	subs	r4, #3
10000ba4:	7099      	strb	r1, [r3, #2]
10000ba6:	5d01      	ldrb	r1, [r0, r4]
10000ba8:	1905      	adds	r5, r0, r4
10000baa:	2900      	cmp	r1, #0
10000bac:	d101      	bne.n	10000bb2 <ph_add_child_node.isra.0+0x1e>
10000bae:	702a      	strb	r2, [r5, #0]
10000bb0:	bd30      	pop	{r4, r5, pc}
10000bb2:	7059      	strb	r1, [r3, #1]
10000bb4:	e7fb      	b.n	10000bae <ph_add_child_node.isra.0+0x1a>
	...

10000bb8 <add_alarm_under_lock>:
10000bb8:	b5f0      	push	{r4, r5, r6, r7, lr}
10000bba:	b085      	sub	sp, #20
10000bbc:	9302      	str	r3, [sp, #8]
10000bbe:	ab0c      	add	r3, sp, #48	; 0x30
10000bc0:	781c      	ldrb	r4, [r3, #0]
10000bc2:	ab0d      	add	r3, sp, #52	; 0x34
10000bc4:	781b      	ldrb	r3, [r3, #0]
10000bc6:	0007      	movs	r7, r0
10000bc8:	6805      	ldr	r5, [r0, #0]
10000bca:	9201      	str	r2, [sp, #4]
10000bcc:	9303      	str	r3, [sp, #12]
10000bce:	2c00      	cmp	r4, #0
10000bd0:	d110      	bne.n	10000bf4 <add_alarm_under_lock+0x3c>
10000bd2:	7bac      	ldrb	r4, [r5, #14]
10000bd4:	2c00      	cmp	r4, #0
10000bd6:	d047      	beq.n	10000c68 <add_alarm_under_lock+0xb0>
10000bd8:	2303      	movs	r3, #3
10000bda:	4363      	muls	r3, r4
10000bdc:	682a      	ldr	r2, [r5, #0]
10000bde:	3b03      	subs	r3, #3
10000be0:	18d3      	adds	r3, r2, r3
10000be2:	785a      	ldrb	r2, [r3, #1]
10000be4:	73aa      	strb	r2, [r5, #14]
10000be6:	2a00      	cmp	r2, #0
10000be8:	d100      	bne.n	10000bec <add_alarm_under_lock+0x34>
10000bea:	73ea      	strb	r2, [r5, #15]
10000bec:	2200      	movs	r2, #0
10000bee:	709a      	strb	r2, [r3, #2]
10000bf0:	705a      	strb	r2, [r3, #1]
10000bf2:	701a      	strb	r2, [r3, #0]
10000bf4:	4b21      	ldr	r3, [pc, #132]	; (10000c7c <add_alarm_under_lock+0xc4>)
10000bf6:	68ba      	ldr	r2, [r7, #8]
10000bf8:	18e3      	adds	r3, r4, r3
10000bfa:	011b      	lsls	r3, r3, #4
10000bfc:	18d3      	adds	r3, r2, r3
10000bfe:	9a01      	ldr	r2, [sp, #4]
10000c00:	601a      	str	r2, [r3, #0]
10000c02:	9a02      	ldr	r2, [sp, #8]
10000c04:	605a      	str	r2, [r3, #4]
10000c06:	9a0a      	ldr	r2, [sp, #40]	; 0x28
10000c08:	609a      	str	r2, [r3, #8]
10000c0a:	9a0b      	ldr	r2, [sp, #44]	; 0x2c
10000c0c:	60da      	str	r2, [r3, #12]
10000c0e:	2303      	movs	r3, #3
10000c10:	4363      	muls	r3, r4
10000c12:	682a      	ldr	r2, [r5, #0]
10000c14:	3b03      	subs	r3, #3
10000c16:	18d3      	adds	r3, r2, r3
10000c18:	2200      	movs	r2, #0
10000c1a:	709a      	strb	r2, [r3, #2]
10000c1c:	705a      	strb	r2, [r3, #1]
10000c1e:	701a      	strb	r2, [r3, #0]
10000c20:	7b6e      	ldrb	r6, [r5, #13]
10000c22:	4296      	cmp	r6, r2
10000c24:	d028      	beq.n	10000c78 <add_alarm_under_lock+0xc0>
10000c26:	0022      	movs	r2, r4
10000c28:	0031      	movs	r1, r6
10000c2a:	68a8      	ldr	r0, [r5, #8]
10000c2c:	686b      	ldr	r3, [r5, #4]
10000c2e:	4798      	blx	r3
10000c30:	2800      	cmp	r0, #0
10000c32:	d01c      	beq.n	10000c6e <add_alarm_under_lock+0xb6>
10000c34:	0022      	movs	r2, r4
10000c36:	0031      	movs	r1, r6
10000c38:	6828      	ldr	r0, [r5, #0]
10000c3a:	f7ff ffab 	bl	10000b94 <ph_add_child_node.isra.0>
10000c3e:	736e      	strb	r6, [r5, #13]
10000c40:	42a6      	cmp	r6, r4
10000c42:	d111      	bne.n	10000c68 <add_alarm_under_lock+0xb0>
10000c44:	7d38      	ldrb	r0, [r7, #20]
10000c46:	9a01      	ldr	r2, [sp, #4]
10000c48:	9b02      	ldr	r3, [sp, #8]
10000c4a:	f000 fa87 	bl	1000115c <hardware_alarm_set_target>
10000c4e:	1e05      	subs	r5, r0, #0
10000c50:	d006      	beq.n	10000c60 <add_alarm_under_lock+0xa8>
10000c52:	9b03      	ldr	r3, [sp, #12]
10000c54:	2b00      	cmp	r3, #0
10000c56:	d103      	bne.n	10000c60 <add_alarm_under_lock+0xa8>
10000c58:	0021      	movs	r1, r4
10000c5a:	6838      	ldr	r0, [r7, #0]
10000c5c:	f000 fbbe 	bl	100013dc <ph_remove_and_free_node>
10000c60:	9b0e      	ldr	r3, [sp, #56]	; 0x38
10000c62:	2b00      	cmp	r3, #0
10000c64:	d000      	beq.n	10000c68 <add_alarm_under_lock+0xb0>
10000c66:	701d      	strb	r5, [r3, #0]
10000c68:	0020      	movs	r0, r4
10000c6a:	b005      	add	sp, #20
10000c6c:	bdf0      	pop	{r4, r5, r6, r7, pc}
10000c6e:	0032      	movs	r2, r6
10000c70:	0021      	movs	r1, r4
10000c72:	6828      	ldr	r0, [r5, #0]
10000c74:	f7ff ff8e 	bl	10000b94 <ph_add_child_node.isra.0>
10000c78:	0026      	movs	r6, r4
10000c7a:	e7e0      	b.n	10000c3e <add_alarm_under_lock+0x86>
10000c7c:	0fffffff 	.word	0x0fffffff

10000c80 <alarm_pool_alarm_callback>:
10000c80:	2300      	movs	r3, #0
10000c82:	b5f0      	push	{r4, r5, r6, r7, lr}
10000c84:	b08f      	sub	sp, #60	; 0x3c
10000c86:	930b      	str	r3, [sp, #44]	; 0x2c
10000c88:	4b5d      	ldr	r3, [pc, #372]	; (10000e00 <alarm_pool_alarm_callback+0x180>)
10000c8a:	0082      	lsls	r2, r0, #2
10000c8c:	58d4      	ldr	r4, [r2, r3]
10000c8e:	900c      	str	r0, [sp, #48]	; 0x30
10000c90:	f000 fa02 	bl	10001098 <time_us_64>
10000c94:	0002      	movs	r2, r0
10000c96:	000b      	movs	r3, r1
10000c98:	6860      	ldr	r0, [r4, #4]
10000c9a:	f3ef 8110 	mrs	r1, PRIMASK
10000c9e:	9108      	str	r1, [sp, #32]
10000ca0:	b672      	cpsid	i
10000ca2:	6801      	ldr	r1, [r0, #0]
10000ca4:	2900      	cmp	r1, #0
10000ca6:	d0fc      	beq.n	10000ca2 <alarm_pool_alarm_callback+0x22>
10000ca8:	f3bf 8f5f 	dmb	sy
10000cac:	6821      	ldr	r1, [r4, #0]
10000cae:	468c      	mov	ip, r1
10000cb0:	7b49      	ldrb	r1, [r1, #13]
10000cb2:	9107      	str	r1, [sp, #28]
10000cb4:	2900      	cmp	r1, #0
10000cb6:	d074      	beq.n	10000da2 <alarm_pool_alarm_callback+0x122>
10000cb8:	4852      	ldr	r0, [pc, #328]	; (10000e04 <alarm_pool_alarm_callback+0x184>)
10000cba:	180d      	adds	r5, r1, r0
10000cbc:	68a1      	ldr	r1, [r4, #8]
10000cbe:	012d      	lsls	r5, r5, #4
10000cc0:	194d      	adds	r5, r1, r5
10000cc2:	682e      	ldr	r6, [r5, #0]
10000cc4:	686f      	ldr	r7, [r5, #4]
10000cc6:	0030      	movs	r0, r6
10000cc8:	0039      	movs	r1, r7
10000cca:	1a80      	subs	r0, r0, r2
10000ccc:	4199      	sbcs	r1, r3
10000cce:	2900      	cmp	r1, #0
10000cd0:	dc5d      	bgt.n	10000d8e <alarm_pool_alarm_callback+0x10e>
10000cd2:	d101      	bne.n	10000cd8 <alarm_pool_alarm_callback+0x58>
10000cd4:	2800      	cmp	r0, #0
10000cd6:	d15a      	bne.n	10000d8e <alarm_pool_alarm_callback+0x10e>
10000cd8:	2100      	movs	r1, #0
10000cda:	4660      	mov	r0, ip
10000cdc:	f000 fb74 	bl	100013c8 <ph_remove_head>
10000ce0:	682e      	ldr	r6, [r5, #0]
10000ce2:	686f      	ldr	r7, [r5, #4]
10000ce4:	68ab      	ldr	r3, [r5, #8]
10000ce6:	9a07      	ldr	r2, [sp, #28]
10000ce8:	930a      	str	r3, [sp, #40]	; 0x28
10000cea:	68e3      	ldr	r3, [r4, #12]
10000cec:	68ed      	ldr	r5, [r5, #12]
10000cee:	189b      	adds	r3, r3, r2
10000cf0:	3b01      	subs	r3, #1
10000cf2:	781b      	ldrb	r3, [r3, #0]
10000cf4:	930b      	str	r3, [sp, #44]	; 0x2c
10000cf6:	021b      	lsls	r3, r3, #8
10000cf8:	4303      	orrs	r3, r0
10000cfa:	2000      	movs	r0, #0
10000cfc:	6123      	str	r3, [r4, #16]
10000cfe:	6863      	ldr	r3, [r4, #4]
10000d00:	f3bf 8f5f 	dmb	sy
10000d04:	2200      	movs	r2, #0
10000d06:	601a      	str	r2, [r3, #0]
10000d08:	9b08      	ldr	r3, [sp, #32]
10000d0a:	f383 8810 	msr	PRIMASK, r3
10000d0e:	9b0a      	ldr	r3, [sp, #40]	; 0x28
10000d10:	4293      	cmp	r3, r2
10000d12:	d06f      	beq.n	10000df4 <alarm_pool_alarm_callback+0x174>
10000d14:	9b0b      	ldr	r3, [sp, #44]	; 0x2c
10000d16:	0029      	movs	r1, r5
10000d18:	0218      	lsls	r0, r3, #8
10000d1a:	9b07      	ldr	r3, [sp, #28]
10000d1c:	4318      	orrs	r0, r3
10000d1e:	9b0a      	ldr	r3, [sp, #40]	; 0x28
10000d20:	4798      	blx	r3
10000d22:	9008      	str	r0, [sp, #32]
10000d24:	9109      	str	r1, [sp, #36]	; 0x24
10000d26:	6862      	ldr	r2, [r4, #4]
10000d28:	f3ef 8310 	mrs	r3, PRIMASK
10000d2c:	930d      	str	r3, [sp, #52]	; 0x34
10000d2e:	b672      	cpsid	i
10000d30:	6813      	ldr	r3, [r2, #0]
10000d32:	2b00      	cmp	r3, #0
10000d34:	d0fc      	beq.n	10000d30 <alarm_pool_alarm_callback+0xb0>
10000d36:	f3bf 8f5f 	dmb	sy
10000d3a:	9b09      	ldr	r3, [sp, #36]	; 0x24
10000d3c:	2b00      	cmp	r3, #0
10000d3e:	da36      	bge.n	10000dae <alarm_pool_alarm_callback+0x12e>
10000d40:	6923      	ldr	r3, [r4, #16]
10000d42:	2b00      	cmp	r3, #0
10000d44:	d043      	beq.n	10000dce <alarm_pool_alarm_callback+0x14e>
10000d46:	9808      	ldr	r0, [sp, #32]
10000d48:	9909      	ldr	r1, [sp, #36]	; 0x24
10000d4a:	0032      	movs	r2, r6
10000d4c:	003b      	movs	r3, r7
10000d4e:	1a12      	subs	r2, r2, r0
10000d50:	418b      	sbcs	r3, r1
10000d52:	429f      	cmp	r7, r3
10000d54:	d802      	bhi.n	10000d5c <alarm_pool_alarm_callback+0xdc>
10000d56:	d104      	bne.n	10000d62 <alarm_pool_alarm_callback+0xe2>
10000d58:	4296      	cmp	r6, r2
10000d5a:	d902      	bls.n	10000d62 <alarm_pool_alarm_callback+0xe2>
10000d5c:	2201      	movs	r2, #1
10000d5e:	4252      	negs	r2, r2
10000d60:	0013      	movs	r3, r2
10000d62:	2100      	movs	r1, #0
10000d64:	9104      	str	r1, [sp, #16]
10000d66:	3101      	adds	r1, #1
10000d68:	9103      	str	r1, [sp, #12]
10000d6a:	9907      	ldr	r1, [sp, #28]
10000d6c:	0020      	movs	r0, r4
10000d6e:	9102      	str	r1, [sp, #8]
10000d70:	990a      	ldr	r1, [sp, #40]	; 0x28
10000d72:	9501      	str	r5, [sp, #4]
10000d74:	9100      	str	r1, [sp, #0]
10000d76:	f7ff ff1f 	bl	10000bb8 <add_alarm_under_lock>
10000d7a:	2200      	movs	r2, #0
10000d7c:	6863      	ldr	r3, [r4, #4]
10000d7e:	6122      	str	r2, [r4, #16]
10000d80:	f3bf 8f5f 	dmb	sy
10000d84:	601a      	str	r2, [r3, #0]
10000d86:	9b0d      	ldr	r3, [sp, #52]	; 0x34
10000d88:	f383 8810 	msr	PRIMASK, r3
10000d8c:	e780      	b.n	10000c90 <alarm_pool_alarm_callback+0x10>
10000d8e:	2500      	movs	r5, #0
10000d90:	0032      	movs	r2, r6
10000d92:	003b      	movs	r3, r7
10000d94:	980c      	ldr	r0, [sp, #48]	; 0x30
10000d96:	f000 f9e1 	bl	1000115c <hardware_alarm_set_target>
10000d9a:	2600      	movs	r6, #0
10000d9c:	2700      	movs	r7, #0
10000d9e:	950a      	str	r5, [sp, #40]	; 0x28
10000da0:	e7ad      	b.n	10000cfe <alarm_pool_alarm_callback+0x7e>
10000da2:	9d07      	ldr	r5, [sp, #28]
10000da4:	2600      	movs	r6, #0
10000da6:	2700      	movs	r7, #0
10000da8:	0028      	movs	r0, r5
10000daa:	950a      	str	r5, [sp, #40]	; 0x28
10000dac:	e7a7      	b.n	10000cfe <alarm_pool_alarm_callback+0x7e>
10000dae:	9b08      	ldr	r3, [sp, #32]
10000db0:	9a09      	ldr	r2, [sp, #36]	; 0x24
10000db2:	4313      	orrs	r3, r2
10000db4:	d00b      	beq.n	10000dce <alarm_pool_alarm_callback+0x14e>
10000db6:	6923      	ldr	r3, [r4, #16]
10000db8:	2b00      	cmp	r3, #0
10000dba:	d008      	beq.n	10000dce <alarm_pool_alarm_callback+0x14e>
10000dbc:	f000 f96c 	bl	10001098 <time_us_64>
10000dc0:	9a08      	ldr	r2, [sp, #32]
10000dc2:	9b09      	ldr	r3, [sp, #36]	; 0x24
10000dc4:	0006      	movs	r6, r0
10000dc6:	000f      	movs	r7, r1
10000dc8:	1992      	adds	r2, r2, r6
10000dca:	417b      	adcs	r3, r7
10000dcc:	e7c1      	b.n	10000d52 <alarm_pool_alarm_callback+0xd2>
10000dce:	6822      	ldr	r2, [r4, #0]
10000dd0:	7bd1      	ldrb	r1, [r2, #15]
10000dd2:	2900      	cmp	r1, #0
10000dd4:	d006      	beq.n	10000de4 <alarm_pool_alarm_callback+0x164>
10000dd6:	2303      	movs	r3, #3
10000dd8:	434b      	muls	r3, r1
10000dda:	6811      	ldr	r1, [r2, #0]
10000ddc:	18cb      	adds	r3, r1, r3
10000dde:	9907      	ldr	r1, [sp, #28]
10000de0:	3b03      	subs	r3, #3
10000de2:	7059      	strb	r1, [r3, #1]
10000de4:	9b07      	ldr	r3, [sp, #28]
10000de6:	73d3      	strb	r3, [r2, #15]
10000de8:	68e1      	ldr	r1, [r4, #12]
10000dea:	3b01      	subs	r3, #1
10000dec:	5cca      	ldrb	r2, [r1, r3]
10000dee:	3201      	adds	r2, #1
10000df0:	54ca      	strb	r2, [r1, r3]
10000df2:	e7c2      	b.n	10000d7a <alarm_pool_alarm_callback+0xfa>
10000df4:	2800      	cmp	r0, #0
10000df6:	d000      	beq.n	10000dfa <alarm_pool_alarm_callback+0x17a>
10000df8:	e74a      	b.n	10000c90 <alarm_pool_alarm_callback+0x10>
10000dfa:	b00f      	add	sp, #60	; 0x3c
10000dfc:	bdf0      	pop	{r4, r5, r6, r7, pc}
10000dfe:	46c0      	nop			; (mov r8, r8)
10000e00:	2000046c 	.word	0x2000046c
10000e04:	0fffffff 	.word	0x0fffffff

10000e08 <alarm_pool_init_default>:
10000e08:	b510      	push	{r4, lr}
10000e0a:	4c09      	ldr	r4, [pc, #36]	; (10000e30 <alarm_pool_init_default+0x28>)
10000e0c:	6863      	ldr	r3, [r4, #4]
10000e0e:	2b00      	cmp	r3, #0
10000e10:	d109      	bne.n	10000e26 <alarm_pool_init_default+0x1e>
10000e12:	2110      	movs	r1, #16
10000e14:	6820      	ldr	r0, [r4, #0]
10000e16:	0023      	movs	r3, r4
10000e18:	4a06      	ldr	r2, [pc, #24]	; (10000e34 <alarm_pool_init_default+0x2c>)
10000e1a:	f000 fa85 	bl	10001328 <ph_post_alloc_init>
10000e1e:	2103      	movs	r1, #3
10000e20:	0020      	movs	r0, r4
10000e22:	f7ff fe81 	bl	10000b28 <alarm_pool_post_alloc_init>
10000e26:	210a      	movs	r1, #10
10000e28:	4803      	ldr	r0, [pc, #12]	; (10000e38 <alarm_pool_init_default+0x30>)
10000e2a:	f000 fa15 	bl	10001258 <lock_init>
10000e2e:	bd10      	pop	{r4, pc}
10000e30:	20000194 	.word	0x20000194
10000e34:	10000af9 	.word	0x10000af9
10000e38:	20000680 	.word	0x20000680

10000e3c <alarm_pool_add_alarm_at>:
10000e3c:	b5f0      	push	{r4, r5, r6, r7, lr}
10000e3e:	b08d      	sub	sp, #52	; 0x34
10000e40:	9307      	str	r3, [sp, #28]
10000e42:	ab14      	add	r3, sp, #80	; 0x50
10000e44:	781b      	ldrb	r3, [r3, #0]
10000e46:	2700      	movs	r7, #0
10000e48:	9309      	str	r3, [sp, #36]	; 0x24
10000e4a:	231f      	movs	r3, #31
10000e4c:	0006      	movs	r6, r0
10000e4e:	9206      	str	r2, [sp, #24]
10000e50:	aa04      	add	r2, sp, #16
10000e52:	189b      	adds	r3, r3, r2
10000e54:	701f      	strb	r7, [r3, #0]
10000e56:	6872      	ldr	r2, [r6, #4]
10000e58:	f3ef 8510 	mrs	r5, PRIMASK
10000e5c:	b672      	cpsid	i
10000e5e:	6813      	ldr	r3, [r2, #0]
10000e60:	2b00      	cmp	r3, #0
10000e62:	d0fc      	beq.n	10000e5e <alarm_pool_add_alarm_at+0x22>
10000e64:	f3bf 8f5f 	dmb	sy
10000e68:	241f      	movs	r4, #31
10000e6a:	ab04      	add	r3, sp, #16
10000e6c:	18e4      	adds	r4, r4, r3
10000e6e:	9b13      	ldr	r3, [sp, #76]	; 0x4c
10000e70:	0030      	movs	r0, r6
10000e72:	9301      	str	r3, [sp, #4]
10000e74:	9b12      	ldr	r3, [sp, #72]	; 0x48
10000e76:	9404      	str	r4, [sp, #16]
10000e78:	9300      	str	r3, [sp, #0]
10000e7a:	9703      	str	r7, [sp, #12]
10000e7c:	9a06      	ldr	r2, [sp, #24]
10000e7e:	9b07      	ldr	r3, [sp, #28]
10000e80:	9702      	str	r7, [sp, #8]
10000e82:	f7ff fe99 	bl	10000bb8 <add_alarm_under_lock>
10000e86:	0002      	movs	r2, r0
10000e88:	2000      	movs	r0, #0
10000e8a:	4282      	cmp	r2, r0
10000e8c:	d003      	beq.n	10000e96 <alarm_pool_add_alarm_at+0x5a>
10000e8e:	68f3      	ldr	r3, [r6, #12]
10000e90:	189b      	adds	r3, r3, r2
10000e92:	3b01      	subs	r3, #1
10000e94:	7818      	ldrb	r0, [r3, #0]
10000e96:	6871      	ldr	r1, [r6, #4]
10000e98:	f3bf 8f5f 	dmb	sy
10000e9c:	600f      	str	r7, [r1, #0]
10000e9e:	f385 8810 	msr	PRIMASK, r5
10000ea2:	2a00      	cmp	r2, #0
10000ea4:	d028      	beq.n	10000ef8 <alarm_pool_add_alarm_at+0xbc>
10000ea6:	7821      	ldrb	r1, [r4, #0]
10000ea8:	2900      	cmp	r1, #0
10000eaa:	d128      	bne.n	10000efe <alarm_pool_add_alarm_at+0xc2>
10000eac:	0200      	lsls	r0, r0, #8
10000eae:	4310      	orrs	r0, r2
10000eb0:	b00d      	add	sp, #52	; 0x34
10000eb2:	bdf0      	pop	{r4, r5, r6, r7, pc}
10000eb4:	0004      	movs	r4, r0
10000eb6:	1e0d      	subs	r5, r1, #0
10000eb8:	da12      	bge.n	10000ee0 <alarm_pool_add_alarm_at+0xa4>
10000eba:	9a06      	ldr	r2, [sp, #24]
10000ebc:	9b07      	ldr	r3, [sp, #28]
10000ebe:	1b12      	subs	r2, r2, r4
10000ec0:	41ab      	sbcs	r3, r5
10000ec2:	001d      	movs	r5, r3
10000ec4:	9b07      	ldr	r3, [sp, #28]
10000ec6:	0014      	movs	r4, r2
10000ec8:	42ab      	cmp	r3, r5
10000eca:	d803      	bhi.n	10000ed4 <alarm_pool_add_alarm_at+0x98>
10000ecc:	d105      	bne.n	10000eda <alarm_pool_add_alarm_at+0x9e>
10000ece:	9b06      	ldr	r3, [sp, #24]
10000ed0:	42a3      	cmp	r3, r4
10000ed2:	d902      	bls.n	10000eda <alarm_pool_add_alarm_at+0x9e>
10000ed4:	2401      	movs	r4, #1
10000ed6:	4264      	negs	r4, r4
10000ed8:	0025      	movs	r5, r4
10000eda:	9406      	str	r4, [sp, #24]
10000edc:	9507      	str	r5, [sp, #28]
10000ede:	e7ba      	b.n	10000e56 <alarm_pool_add_alarm_at+0x1a>
10000ee0:	f000 f8da 	bl	10001098 <time_us_64>
10000ee4:	0002      	movs	r2, r0
10000ee6:	000b      	movs	r3, r1
10000ee8:	18a4      	adds	r4, r4, r2
10000eea:	415d      	adcs	r5, r3
10000eec:	42a9      	cmp	r1, r5
10000eee:	d8f1      	bhi.n	10000ed4 <alarm_pool_add_alarm_at+0x98>
10000ef0:	d1f3      	bne.n	10000eda <alarm_pool_add_alarm_at+0x9e>
10000ef2:	42a0      	cmp	r0, r4
10000ef4:	d9f1      	bls.n	10000eda <alarm_pool_add_alarm_at+0x9e>
10000ef6:	e7ed      	b.n	10000ed4 <alarm_pool_add_alarm_at+0x98>
10000ef8:	2001      	movs	r0, #1
10000efa:	4240      	negs	r0, r0
10000efc:	e7d8      	b.n	10000eb0 <alarm_pool_add_alarm_at+0x74>
10000efe:	9b09      	ldr	r3, [sp, #36]	; 0x24
10000f00:	2b00      	cmp	r3, #0
10000f02:	d006      	beq.n	10000f12 <alarm_pool_add_alarm_at+0xd6>
10000f04:	9b12      	ldr	r3, [sp, #72]	; 0x48
10000f06:	2000      	movs	r0, #0
10000f08:	9913      	ldr	r1, [sp, #76]	; 0x4c
10000f0a:	4798      	blx	r3
10000f0c:	0003      	movs	r3, r0
10000f0e:	430b      	orrs	r3, r1
10000f10:	d1d0      	bne.n	10000eb4 <alarm_pool_add_alarm_at+0x78>
10000f12:	2000      	movs	r0, #0
10000f14:	e7cc      	b.n	10000eb0 <alarm_pool_add_alarm_at+0x74>
	...

10000f18 <sleep_until>:
10000f18:	b5f0      	push	{r4, r5, r6, r7, lr}
10000f1a:	0006      	movs	r6, r0
10000f1c:	000f      	movs	r7, r1
10000f1e:	2406      	movs	r4, #6
10000f20:	4264      	negs	r4, r4
10000f22:	17e5      	asrs	r5, r4, #31
10000f24:	19a4      	adds	r4, r4, r6
10000f26:	417d      	adcs	r5, r7
10000f28:	b085      	sub	sp, #20
10000f2a:	428d      	cmp	r5, r1
10000f2c:	d802      	bhi.n	10000f34 <sleep_until+0x1c>
10000f2e:	d103      	bne.n	10000f38 <sleep_until+0x20>
10000f30:	4284      	cmp	r4, r0
10000f32:	d901      	bls.n	10000f38 <sleep_until+0x20>
10000f34:	2400      	movs	r4, #0
10000f36:	2500      	movs	r5, #0
10000f38:	f000 f8ae 	bl	10001098 <time_us_64>
10000f3c:	0022      	movs	r2, r4
10000f3e:	002b      	movs	r3, r5
10000f40:	1a12      	subs	r2, r2, r0
10000f42:	418b      	sbcs	r3, r1
10000f44:	2b00      	cmp	r3, #0
10000f46:	dc08      	bgt.n	10000f5a <sleep_until+0x42>
10000f48:	d101      	bne.n	10000f4e <sleep_until+0x36>
10000f4a:	2a00      	cmp	r2, #0
10000f4c:	d105      	bne.n	10000f5a <sleep_until+0x42>
10000f4e:	0030      	movs	r0, r6
10000f50:	0039      	movs	r1, r7
10000f52:	f000 f8ab 	bl	100010ac <busy_wait_until>
10000f56:	b005      	add	sp, #20
10000f58:	bdf0      	pop	{r4, r5, r6, r7, pc}
10000f5a:	2300      	movs	r3, #0
10000f5c:	9302      	str	r3, [sp, #8]
10000f5e:	9301      	str	r3, [sp, #4]
10000f60:	4b10      	ldr	r3, [pc, #64]	; (10000fa4 <sleep_until+0x8c>)
10000f62:	0022      	movs	r2, r4
10000f64:	9300      	str	r3, [sp, #0]
10000f66:	4810      	ldr	r0, [pc, #64]	; (10000fa8 <sleep_until+0x90>)
10000f68:	002b      	movs	r3, r5
10000f6a:	f7ff ff67 	bl	10000e3c <alarm_pool_add_alarm_at>
10000f6e:	2800      	cmp	r0, #0
10000f70:	dbed      	blt.n	10000f4e <sleep_until+0x36>
10000f72:	0020      	movs	r0, r4
10000f74:	0029      	movs	r1, r5
10000f76:	f7ff fdab 	bl	10000ad0 <time_reached>
10000f7a:	2800      	cmp	r0, #0
10000f7c:	d1e7      	bne.n	10000f4e <sleep_until+0x36>
10000f7e:	4b0b      	ldr	r3, [pc, #44]	; (10000fac <sleep_until+0x94>)
10000f80:	6818      	ldr	r0, [r3, #0]
10000f82:	f3ef 8210 	mrs	r2, PRIMASK
10000f86:	b672      	cpsid	i
10000f88:	6801      	ldr	r1, [r0, #0]
10000f8a:	2900      	cmp	r1, #0
10000f8c:	d0fc      	beq.n	10000f88 <sleep_until+0x70>
10000f8e:	f3bf 8f5f 	dmb	sy
10000f92:	681b      	ldr	r3, [r3, #0]
10000f94:	f3bf 8f5f 	dmb	sy
10000f98:	2100      	movs	r1, #0
10000f9a:	6019      	str	r1, [r3, #0]
10000f9c:	f382 8810 	msr	PRIMASK, r2
10000fa0:	bf20      	wfe
10000fa2:	e7e6      	b.n	10000f72 <sleep_until+0x5a>
10000fa4:	10000b65 	.word	0x10000b65
10000fa8:	20000194 	.word	0x20000194
10000fac:	20000680 	.word	0x20000680

10000fb0 <sleep_us>:
10000fb0:	b570      	push	{r4, r5, r6, lr}
10000fb2:	0004      	movs	r4, r0
10000fb4:	000d      	movs	r5, r1
10000fb6:	f000 f86f 	bl	10001098 <time_us_64>
10000fba:	0002      	movs	r2, r0
10000fbc:	000b      	movs	r3, r1
10000fbe:	0020      	movs	r0, r4
10000fc0:	0029      	movs	r1, r5
10000fc2:	1880      	adds	r0, r0, r2
10000fc4:	4159      	adcs	r1, r3
10000fc6:	428b      	cmp	r3, r1
10000fc8:	d802      	bhi.n	10000fd0 <sleep_us+0x20>
10000fca:	d104      	bne.n	10000fd6 <sleep_us+0x26>
10000fcc:	4282      	cmp	r2, r0
10000fce:	d902      	bls.n	10000fd6 <sleep_us+0x26>
10000fd0:	2001      	movs	r0, #1
10000fd2:	4240      	negs	r0, r0
10000fd4:	17c1      	asrs	r1, r0, #31
10000fd6:	f7ff ff9f 	bl	10000f18 <sleep_until>
10000fda:	bd70      	pop	{r4, r5, r6, pc}

10000fdc <sleep_ms>:
10000fdc:	22fa      	movs	r2, #250	; 0xfa
10000fde:	b510      	push	{r4, lr}
10000fe0:	2300      	movs	r3, #0
10000fe2:	0092      	lsls	r2, r2, #2
10000fe4:	2100      	movs	r1, #0
10000fe6:	f001 f847 	bl	10002078 <__wrap___aeabi_lmul>
10000fea:	f7ff ffe1 	bl	10000fb0 <sleep_us>
10000fee:	bd10      	pop	{r4, pc}

10000ff0 <hardware_alarm_irq_handler>:
10000ff0:	b5f7      	push	{r0, r1, r2, r4, r5, r6, r7, lr}
10000ff2:	f3ef 8205 	mrs	r2, IPSR
10000ff6:	233f      	movs	r3, #63	; 0x3f
10000ff8:	401a      	ands	r2, r3
10000ffa:	0010      	movs	r0, r2
10000ffc:	9201      	str	r2, [sp, #4]
10000ffe:	3810      	subs	r0, #16
10001000:	f3ef 8710 	mrs	r7, PRIMASK
10001004:	b672      	cpsid	i
10001006:	4b18      	ldr	r3, [pc, #96]	; (10001068 <hardware_alarm_irq_handler+0x78>)
10001008:	681b      	ldr	r3, [r3, #0]
1000100a:	2b00      	cmp	r3, #0
1000100c:	d0fb      	beq.n	10001006 <hardware_alarm_irq_handler+0x16>
1000100e:	f3bf 8f5f 	dmb	sy
10001012:	2601      	movs	r6, #1
10001014:	0034      	movs	r4, r6
10001016:	4084      	lsls	r4, r0
10001018:	4d14      	ldr	r5, [pc, #80]	; (1000106c <hardware_alarm_irq_handler+0x7c>)
1000101a:	4b15      	ldr	r3, [pc, #84]	; (10001070 <hardware_alarm_irq_handler+0x80>)
1000101c:	636c      	str	r4, [r5, #52]	; 0x34
1000101e:	781b      	ldrb	r3, [r3, #0]
10001020:	001a      	movs	r2, r3
10001022:	40c2      	lsrs	r2, r0
10001024:	4694      	mov	ip, r2
10001026:	4661      	mov	r1, ip
10001028:	2200      	movs	r2, #0
1000102a:	4231      	tst	r1, r6
1000102c:	d00a      	beq.n	10001044 <hardware_alarm_irq_handler+0x54>
1000102e:	4e11      	ldr	r6, [pc, #68]	; (10001074 <hardware_alarm_irq_handler+0x84>)
10001030:	6a69      	ldr	r1, [r5, #36]	; 0x24
10001032:	0085      	lsls	r5, r0, #2
10001034:	59ae      	ldr	r6, [r5, r6]
10001036:	42b1      	cmp	r1, r6
10001038:	d30f      	bcc.n	1000105a <hardware_alarm_irq_handler+0x6a>
1000103a:	4a0f      	ldr	r2, [pc, #60]	; (10001078 <hardware_alarm_irq_handler+0x88>)
1000103c:	490c      	ldr	r1, [pc, #48]	; (10001070 <hardware_alarm_irq_handler+0x80>)
1000103e:	43a3      	bics	r3, r4
10001040:	58aa      	ldr	r2, [r5, r2]
10001042:	700b      	strb	r3, [r1, #0]
10001044:	f3bf 8f5f 	dmb	sy
10001048:	2300      	movs	r3, #0
1000104a:	4907      	ldr	r1, [pc, #28]	; (10001068 <hardware_alarm_irq_handler+0x78>)
1000104c:	600b      	str	r3, [r1, #0]
1000104e:	f387 8810 	msr	PRIMASK, r7
10001052:	429a      	cmp	r2, r3
10001054:	d000      	beq.n	10001058 <hardware_alarm_irq_handler+0x68>
10001056:	4790      	blx	r2
10001058:	bdf7      	pop	{r0, r1, r2, r4, r5, r6, r7, pc}
1000105a:	9b01      	ldr	r3, [sp, #4]
1000105c:	4907      	ldr	r1, [pc, #28]	; (1000107c <hardware_alarm_irq_handler+0x8c>)
1000105e:	009b      	lsls	r3, r3, #2
10001060:	185b      	adds	r3, r3, r1
10001062:	681c      	ldr	r4, [r3, #0]
10001064:	601c      	str	r4, [r3, #0]
10001066:	e7ed      	b.n	10001044 <hardware_alarm_irq_handler+0x54>
10001068:	d0000128 	.word	0xd0000128
1000106c:	40054000 	.word	0x40054000
10001070:	200006de 	.word	0x200006de
10001074:	20000684 	.word	0x20000684
10001078:	20000384 	.word	0x20000384
1000107c:	40053fd0 	.word	0x40053fd0

10001080 <hardware_alarm_claim>:
10001080:	b510      	push	{r4, lr}
10001082:	0001      	movs	r1, r0
10001084:	4a02      	ldr	r2, [pc, #8]	; (10001090 <hardware_alarm_claim+0x10>)
10001086:	4803      	ldr	r0, [pc, #12]	; (10001094 <hardware_alarm_claim+0x14>)
10001088:	f7ff fc6b 	bl	10000962 <hw_claim_or_assert>
1000108c:	bd10      	pop	{r4, pc}
1000108e:	46c0      	nop			; (mov r8, r8)
10001090:	1000258a 	.word	0x1000258a
10001094:	2000069c 	.word	0x2000069c

10001098 <time_us_64>:
10001098:	4b03      	ldr	r3, [pc, #12]	; (100010a8 <time_us_64+0x10>)
1000109a:	6a59      	ldr	r1, [r3, #36]	; 0x24
1000109c:	000a      	movs	r2, r1
1000109e:	6a98      	ldr	r0, [r3, #40]	; 0x28
100010a0:	6a59      	ldr	r1, [r3, #36]	; 0x24
100010a2:	428a      	cmp	r2, r1
100010a4:	d1fa      	bne.n	1000109c <time_us_64+0x4>
100010a6:	4770      	bx	lr
100010a8:	40054000 	.word	0x40054000

100010ac <busy_wait_until>:
100010ac:	4b05      	ldr	r3, [pc, #20]	; (100010c4 <busy_wait_until+0x18>)
100010ae:	6a5a      	ldr	r2, [r3, #36]	; 0x24
100010b0:	428a      	cmp	r2, r1
100010b2:	d3fc      	bcc.n	100010ae <busy_wait_until+0x2>
100010b4:	428a      	cmp	r2, r1
100010b6:	d102      	bne.n	100010be <busy_wait_until+0x12>
100010b8:	6a9a      	ldr	r2, [r3, #40]	; 0x28
100010ba:	4282      	cmp	r2, r0
100010bc:	d300      	bcc.n	100010c0 <busy_wait_until+0x14>
100010be:	4770      	bx	lr
100010c0:	6a5a      	ldr	r2, [r3, #36]	; 0x24
100010c2:	e7f7      	b.n	100010b4 <busy_wait_until+0x8>
100010c4:	40054000 	.word	0x40054000

100010c8 <hardware_alarm_set_callback>:
100010c8:	b5f7      	push	{r0, r1, r2, r4, r5, r6, r7, lr}
100010ca:	0004      	movs	r4, r0
100010cc:	000d      	movs	r5, r1
100010ce:	f3ef 8310 	mrs	r3, PRIMASK
100010d2:	9300      	str	r3, [sp, #0]
100010d4:	b672      	cpsid	i
100010d6:	4f1c      	ldr	r7, [pc, #112]	; (10001148 <hardware_alarm_set_callback+0x80>)
100010d8:	683b      	ldr	r3, [r7, #0]
100010da:	2b00      	cmp	r3, #0
100010dc:	d0fc      	beq.n	100010d8 <hardware_alarm_set_callback+0x10>
100010de:	f3bf 8f5f 	dmb	sy
100010e2:	00a3      	lsls	r3, r4, #2
100010e4:	4e19      	ldr	r6, [pc, #100]	; (1000114c <hardware_alarm_set_callback+0x84>)
100010e6:	9301      	str	r3, [sp, #4]
100010e8:	2d00      	cmp	r5, #0
100010ea:	d01b      	beq.n	10001124 <hardware_alarm_set_callback+0x5c>
100010ec:	0020      	movs	r0, r4
100010ee:	f000 fb51 	bl	10001794 <irq_get_vtable_handler>
100010f2:	4286      	cmp	r6, r0
100010f4:	d00b      	beq.n	1000110e <hardware_alarm_set_callback+0x46>
100010f6:	0031      	movs	r1, r6
100010f8:	0020      	movs	r0, r4
100010fa:	f000 fb53 	bl	100017a4 <irq_set_exclusive_handler>
100010fe:	2101      	movs	r1, #1
10001100:	0020      	movs	r0, r4
10001102:	f000 fb3f 	bl	10001784 <irq_set_enabled>
10001106:	2301      	movs	r3, #1
10001108:	40a3      	lsls	r3, r4
1000110a:	4a11      	ldr	r2, [pc, #68]	; (10001150 <hardware_alarm_set_callback+0x88>)
1000110c:	6013      	str	r3, [r2, #0]
1000110e:	4b11      	ldr	r3, [pc, #68]	; (10001154 <hardware_alarm_set_callback+0x8c>)
10001110:	9a01      	ldr	r2, [sp, #4]
10001112:	509d      	str	r5, [r3, r2]
10001114:	f3bf 8f5f 	dmb	sy
10001118:	2300      	movs	r3, #0
1000111a:	603b      	str	r3, [r7, #0]
1000111c:	9b00      	ldr	r3, [sp, #0]
1000111e:	f383 8810 	msr	PRIMASK, r3
10001122:	bdf7      	pop	{r0, r1, r2, r4, r5, r6, r7, pc}
10001124:	4b0b      	ldr	r3, [pc, #44]	; (10001154 <hardware_alarm_set_callback+0x8c>)
10001126:	00a2      	lsls	r2, r4, #2
10001128:	509d      	str	r5, [r3, r2]
1000112a:	2201      	movs	r2, #1
1000112c:	40a2      	lsls	r2, r4
1000112e:	490a      	ldr	r1, [pc, #40]	; (10001158 <hardware_alarm_set_callback+0x90>)
10001130:	0020      	movs	r0, r4
10001132:	780b      	ldrb	r3, [r1, #0]
10001134:	4393      	bics	r3, r2
10001136:	700b      	strb	r3, [r1, #0]
10001138:	0031      	movs	r1, r6
1000113a:	f000 fb53 	bl	100017e4 <irq_remove_handler>
1000113e:	0029      	movs	r1, r5
10001140:	0020      	movs	r0, r4
10001142:	f000 fb1f 	bl	10001784 <irq_set_enabled>
10001146:	e7e5      	b.n	10001114 <hardware_alarm_set_callback+0x4c>
10001148:	d0000128 	.word	0xd0000128
1000114c:	10000ff1 	.word	0x10000ff1
10001150:	40056038 	.word	0x40056038
10001154:	20000384 	.word	0x20000384
10001158:	200006de 	.word	0x200006de

1000115c <hardware_alarm_set_target>:
1000115c:	b5f0      	push	{r4, r5, r6, r7, lr}
1000115e:	b085      	sub	sp, #20
10001160:	001e      	movs	r6, r3
10001162:	0004      	movs	r4, r0
10001164:	9201      	str	r2, [sp, #4]
10001166:	f7ff ff97 	bl	10001098 <time_us_64>
1000116a:	428e      	cmp	r6, r1
1000116c:	d803      	bhi.n	10001176 <hardware_alarm_set_target+0x1a>
1000116e:	d147      	bne.n	10001200 <hardware_alarm_set_target+0xa4>
10001170:	9b01      	ldr	r3, [sp, #4]
10001172:	4283      	cmp	r3, r0
10001174:	d944      	bls.n	10001200 <hardware_alarm_set_target+0xa4>
10001176:	f3ef 8310 	mrs	r3, PRIMASK
1000117a:	9303      	str	r3, [sp, #12]
1000117c:	b672      	cpsid	i
1000117e:	4b21      	ldr	r3, [pc, #132]	; (10001204 <hardware_alarm_set_target+0xa8>)
10001180:	681b      	ldr	r3, [r3, #0]
10001182:	2b00      	cmp	r3, #0
10001184:	d0fb      	beq.n	1000117e <hardware_alarm_set_target+0x22>
10001186:	f3bf 8f5f 	dmb	sy
1000118a:	2501      	movs	r5, #1
1000118c:	40a5      	lsls	r5, r4
1000118e:	4b1e      	ldr	r3, [pc, #120]	; (10001208 <hardware_alarm_set_target+0xac>)
10001190:	4f1e      	ldr	r7, [pc, #120]	; (1000120c <hardware_alarm_set_target+0xb0>)
10001192:	781b      	ldrb	r3, [r3, #0]
10001194:	9300      	str	r3, [sp, #0]
10001196:	432b      	orrs	r3, r5
10001198:	b2db      	uxtb	r3, r3
1000119a:	9302      	str	r3, [sp, #8]
1000119c:	9a02      	ldr	r2, [sp, #8]
1000119e:	4b1a      	ldr	r3, [pc, #104]	; (10001208 <hardware_alarm_set_target+0xac>)
100011a0:	701a      	strb	r2, [r3, #0]
100011a2:	9a01      	ldr	r2, [sp, #4]
100011a4:	1d23      	adds	r3, r4, #4
100011a6:	009b      	lsls	r3, r3, #2
100011a8:	637d      	str	r5, [r7, #52]	; 0x34
100011aa:	51da      	str	r2, [r3, r7]
100011ac:	4a18      	ldr	r2, [pc, #96]	; (10001210 <hardware_alarm_set_target+0xb4>)
100011ae:	00a3      	lsls	r3, r4, #2
100011b0:	509e      	str	r6, [r3, r2]
100011b2:	6a3b      	ldr	r3, [r7, #32]
100011b4:	422b      	tst	r3, r5
100011b6:	d10a      	bne.n	100011ce <hardware_alarm_set_target+0x72>
100011b8:	2000      	movs	r0, #0
100011ba:	f3bf 8f5f 	dmb	sy
100011be:	2300      	movs	r3, #0
100011c0:	4a10      	ldr	r2, [pc, #64]	; (10001204 <hardware_alarm_set_target+0xa8>)
100011c2:	6013      	str	r3, [r2, #0]
100011c4:	9b03      	ldr	r3, [sp, #12]
100011c6:	f383 8810 	msr	PRIMASK, r3
100011ca:	b005      	add	sp, #20
100011cc:	bdf0      	pop	{r4, r5, r6, r7, pc}
100011ce:	f7ff ff63 	bl	10001098 <time_us_64>
100011d2:	428e      	cmp	r6, r1
100011d4:	d8f0      	bhi.n	100011b8 <hardware_alarm_set_target+0x5c>
100011d6:	d102      	bne.n	100011de <hardware_alarm_set_target+0x82>
100011d8:	9b01      	ldr	r3, [sp, #4]
100011da:	4283      	cmp	r3, r0
100011dc:	d8ec      	bhi.n	100011b8 <hardware_alarm_set_target+0x5c>
100011de:	9b02      	ldr	r3, [sp, #8]
100011e0:	9a00      	ldr	r2, [sp, #0]
100011e2:	2001      	movs	r0, #1
100011e4:	4293      	cmp	r3, r2
100011e6:	d0e8      	beq.n	100011ba <hardware_alarm_set_target+0x5e>
100011e8:	231f      	movs	r3, #31
100011ea:	0002      	movs	r2, r0
100011ec:	401c      	ands	r4, r3
100011ee:	40a2      	lsls	r2, r4
100011f0:	4b08      	ldr	r3, [pc, #32]	; (10001214 <hardware_alarm_set_target+0xb8>)
100011f2:	623d      	str	r5, [r7, #32]
100011f4:	637d      	str	r5, [r7, #52]	; 0x34
100011f6:	601a      	str	r2, [r3, #0]
100011f8:	4b03      	ldr	r3, [pc, #12]	; (10001208 <hardware_alarm_set_target+0xac>)
100011fa:	9a00      	ldr	r2, [sp, #0]
100011fc:	701a      	strb	r2, [r3, #0]
100011fe:	e7dc      	b.n	100011ba <hardware_alarm_set_target+0x5e>
10001200:	2001      	movs	r0, #1
10001202:	e7e2      	b.n	100011ca <hardware_alarm_set_target+0x6e>
10001204:	d0000128 	.word	0xd0000128
10001208:	200006de 	.word	0x200006de
1000120c:	40054000 	.word	0x40054000
10001210:	20000684 	.word	0x20000684
10001214:	e000e280 	.word	0xe000e280

10001218 <hardware_alarm_cancel>:
10001218:	b510      	push	{r4, lr}
1000121a:	f3ef 8410 	mrs	r4, PRIMASK
1000121e:	b672      	cpsid	i
10001220:	490a      	ldr	r1, [pc, #40]	; (1000124c <hardware_alarm_cancel+0x34>)
10001222:	680b      	ldr	r3, [r1, #0]
10001224:	2b00      	cmp	r3, #0
10001226:	d0fc      	beq.n	10001222 <hardware_alarm_cancel+0xa>
10001228:	f3bf 8f5f 	dmb	sy
1000122c:	2301      	movs	r3, #1
1000122e:	4083      	lsls	r3, r0
10001230:	4a07      	ldr	r2, [pc, #28]	; (10001250 <hardware_alarm_cancel+0x38>)
10001232:	4808      	ldr	r0, [pc, #32]	; (10001254 <hardware_alarm_cancel+0x3c>)
10001234:	6213      	str	r3, [r2, #32]
10001236:	7802      	ldrb	r2, [r0, #0]
10001238:	439a      	bics	r2, r3
1000123a:	7002      	strb	r2, [r0, #0]
1000123c:	f3bf 8f5f 	dmb	sy
10001240:	2300      	movs	r3, #0
10001242:	600b      	str	r3, [r1, #0]
10001244:	f384 8810 	msr	PRIMASK, r4
10001248:	bd10      	pop	{r4, pc}
1000124a:	46c0      	nop			; (mov r8, r8)
1000124c:	d0000128 	.word	0xd0000128
10001250:	40054000 	.word	0x40054000
10001254:	200006de 	.word	0x200006de

10001258 <lock_init>:
10001258:	4b02      	ldr	r3, [pc, #8]	; (10001264 <lock_init+0xc>)
1000125a:	18c9      	adds	r1, r1, r3
1000125c:	0089      	lsls	r1, r1, #2
1000125e:	6001      	str	r1, [r0, #0]
10001260:	4770      	bx	lr
10001262:	46c0      	nop			; (mov r8, r8)
10001264:	34000040 	.word	0x34000040

10001268 <mutex_init>:
10001268:	b510      	push	{r4, lr}
1000126a:	0004      	movs	r4, r0
1000126c:	f7ff fbac 	bl	100009c8 <next_striped_spin_lock_num>
10001270:	0001      	movs	r1, r0
10001272:	0020      	movs	r0, r4
10001274:	f7ff fff0 	bl	10001258 <lock_init>
10001278:	23ff      	movs	r3, #255	; 0xff
1000127a:	7123      	strb	r3, [r4, #4]
1000127c:	f3bf 8f5f 	dmb	sy
10001280:	bd10      	pop	{r4, pc}

10001282 <recursive_mutex_init>:
10001282:	b510      	push	{r4, lr}
10001284:	0004      	movs	r4, r0
10001286:	f7ff fb9f 	bl	100009c8 <next_striped_spin_lock_num>
1000128a:	0001      	movs	r1, r0
1000128c:	0020      	movs	r0, r4
1000128e:	f7ff ffe3 	bl	10001258 <lock_init>
10001292:	23ff      	movs	r3, #255	; 0xff
10001294:	80a3      	strh	r3, [r4, #4]
10001296:	f3bf 8f5f 	dmb	sy
1000129a:	bd10      	pop	{r4, pc}

1000129c <ph_add_child_node.isra.0>:
1000129c:	2303      	movs	r3, #3
1000129e:	b530      	push	{r4, r5, lr}
100012a0:	001c      	movs	r4, r3
100012a2:	4353      	muls	r3, r2
100012a4:	434c      	muls	r4, r1
100012a6:	3b03      	subs	r3, #3
100012a8:	18c3      	adds	r3, r0, r3
100012aa:	3c03      	subs	r4, #3
100012ac:	7099      	strb	r1, [r3, #2]
100012ae:	5d01      	ldrb	r1, [r0, r4]
100012b0:	1905      	adds	r5, r0, r4
100012b2:	2900      	cmp	r1, #0
100012b4:	d101      	bne.n	100012ba <ph_add_child_node.isra.0+0x1e>
100012b6:	702a      	strb	r2, [r5, #0]
100012b8:	bd30      	pop	{r4, r5, pc}
100012ba:	7059      	strb	r1, [r3, #1]
100012bc:	e7fb      	b.n	100012b6 <ph_add_child_node.isra.0+0x1a>

100012be <ph_merge_nodes>:
100012be:	b570      	push	{r4, r5, r6, lr}
100012c0:	0006      	movs	r6, r0
100012c2:	000c      	movs	r4, r1
100012c4:	0015      	movs	r5, r2
100012c6:	2900      	cmp	r1, #0
100012c8:	d012      	beq.n	100012f0 <ph_merge_nodes+0x32>
100012ca:	2a00      	cmp	r2, #0
100012cc:	d009      	beq.n	100012e2 <ph_merge_nodes+0x24>
100012ce:	6880      	ldr	r0, [r0, #8]
100012d0:	6873      	ldr	r3, [r6, #4]
100012d2:	4798      	blx	r3
100012d4:	2800      	cmp	r0, #0
100012d6:	d006      	beq.n	100012e6 <ph_merge_nodes+0x28>
100012d8:	002a      	movs	r2, r5
100012da:	0021      	movs	r1, r4
100012dc:	6830      	ldr	r0, [r6, #0]
100012de:	f7ff ffdd 	bl	1000129c <ph_add_child_node.isra.0>
100012e2:	0020      	movs	r0, r4
100012e4:	bd70      	pop	{r4, r5, r6, pc}
100012e6:	0022      	movs	r2, r4
100012e8:	0029      	movs	r1, r5
100012ea:	6830      	ldr	r0, [r6, #0]
100012ec:	f7ff ffd6 	bl	1000129c <ph_add_child_node.isra.0>
100012f0:	002c      	movs	r4, r5
100012f2:	e7f6      	b.n	100012e2 <ph_merge_nodes+0x24>

100012f4 <ph_clear>:
100012f4:	2201      	movs	r2, #1
100012f6:	2300      	movs	r3, #0
100012f8:	b530      	push	{r4, r5, lr}
100012fa:	7b04      	ldrb	r4, [r0, #12]
100012fc:	7382      	strb	r2, [r0, #14]
100012fe:	7343      	strb	r3, [r0, #13]
10001300:	6802      	ldr	r2, [r0, #0]
10001302:	73c4      	strb	r4, [r0, #15]
10001304:	2003      	movs	r0, #3
10001306:	3301      	adds	r3, #1
10001308:	b2dd      	uxtb	r5, r3
1000130a:	42ac      	cmp	r4, r5
1000130c:	d805      	bhi.n	1000131a <ph_clear+0x26>
1000130e:	2300      	movs	r3, #0
10001310:	4360      	muls	r0, r4
10001312:	1812      	adds	r2, r2, r0
10001314:	3a03      	subs	r2, #3
10001316:	7053      	strb	r3, [r2, #1]
10001318:	bd30      	pop	{r4, r5, pc}
1000131a:	0001      	movs	r1, r0
1000131c:	4359      	muls	r1, r3
1000131e:	1851      	adds	r1, r2, r1
10001320:	3903      	subs	r1, #3
10001322:	3501      	adds	r5, #1
10001324:	704d      	strb	r5, [r1, #1]
10001326:	e7ee      	b.n	10001306 <ph_clear+0x12>

10001328 <ph_post_alloc_init>:
10001328:	b510      	push	{r4, lr}
1000132a:	7301      	strb	r1, [r0, #12]
1000132c:	6042      	str	r2, [r0, #4]
1000132e:	6083      	str	r3, [r0, #8]
10001330:	f7ff ffe0 	bl	100012f4 <ph_clear>
10001334:	bd10      	pop	{r4, pc}

10001336 <ph_merge_two_pass>:
10001336:	b570      	push	{r4, r5, r6, lr}
10001338:	0004      	movs	r4, r0
1000133a:	2900      	cmp	r1, #0
1000133c:	d01d      	beq.n	1000137a <ph_merge_two_pass+0x44>
1000133e:	6805      	ldr	r5, [r0, #0]
10001340:	2003      	movs	r0, #3
10001342:	0003      	movs	r3, r0
10001344:	434b      	muls	r3, r1
10001346:	3b03      	subs	r3, #3
10001348:	18eb      	adds	r3, r5, r3
1000134a:	785a      	ldrb	r2, [r3, #1]
1000134c:	2a00      	cmp	r2, #0
1000134e:	d014      	beq.n	1000137a <ph_merge_two_pass+0x44>
10001350:	2600      	movs	r6, #0
10001352:	4350      	muls	r0, r2
10001354:	3803      	subs	r0, #3
10001356:	1828      	adds	r0, r5, r0
10001358:	7845      	ldrb	r5, [r0, #1]
1000135a:	7046      	strb	r6, [r0, #1]
1000135c:	705e      	strb	r6, [r3, #1]
1000135e:	0020      	movs	r0, r4
10001360:	f7ff ffad 	bl	100012be <ph_merge_nodes>
10001364:	0029      	movs	r1, r5
10001366:	0006      	movs	r6, r0
10001368:	0020      	movs	r0, r4
1000136a:	f7ff ffe4 	bl	10001336 <ph_merge_two_pass>
1000136e:	0031      	movs	r1, r6
10001370:	0002      	movs	r2, r0
10001372:	0020      	movs	r0, r4
10001374:	f7ff ffa3 	bl	100012be <ph_merge_nodes>
10001378:	0001      	movs	r1, r0
1000137a:	0008      	movs	r0, r1
1000137c:	bd70      	pop	{r4, r5, r6, pc}

1000137e <ph_remove_any_head>:
1000137e:	b5f7      	push	{r0, r1, r2, r4, r5, r6, r7, lr}
10001380:	2703      	movs	r7, #3
10001382:	003e      	movs	r6, r7
10001384:	434e      	muls	r6, r1
10001386:	6803      	ldr	r3, [r0, #0]
10001388:	3e03      	subs	r6, #3
1000138a:	000d      	movs	r5, r1
1000138c:	5d99      	ldrb	r1, [r3, r6]
1000138e:	0004      	movs	r4, r0
10001390:	9201      	str	r2, [sp, #4]
10001392:	f7ff ffd0 	bl	10001336 <ph_merge_two_pass>
10001396:	9b01      	ldr	r3, [sp, #4]
10001398:	2b00      	cmp	r3, #0
1000139a:	d008      	beq.n	100013ae <ph_remove_any_head+0x30>
1000139c:	7be3      	ldrb	r3, [r4, #15]
1000139e:	2b00      	cmp	r3, #0
100013a0:	d004      	beq.n	100013ac <ph_remove_any_head+0x2e>
100013a2:	435f      	muls	r7, r3
100013a4:	6823      	ldr	r3, [r4, #0]
100013a6:	19df      	adds	r7, r3, r7
100013a8:	3f03      	subs	r7, #3
100013aa:	707d      	strb	r5, [r7, #1]
100013ac:	73e5      	strb	r5, [r4, #15]
100013ae:	6822      	ldr	r2, [r4, #0]
100013b0:	2800      	cmp	r0, #0
100013b2:	d005      	beq.n	100013c0 <ph_remove_any_head+0x42>
100013b4:	2303      	movs	r3, #3
100013b6:	2100      	movs	r1, #0
100013b8:	4343      	muls	r3, r0
100013ba:	18d3      	adds	r3, r2, r3
100013bc:	3b03      	subs	r3, #3
100013be:	7099      	strb	r1, [r3, #2]
100013c0:	2300      	movs	r3, #0
100013c2:	1992      	adds	r2, r2, r6
100013c4:	7053      	strb	r3, [r2, #1]
100013c6:	bdfe      	pop	{r1, r2, r3, r4, r5, r6, r7, pc}

100013c8 <ph_remove_head>:
100013c8:	b570      	push	{r4, r5, r6, lr}
100013ca:	7b45      	ldrb	r5, [r0, #13]
100013cc:	000a      	movs	r2, r1
100013ce:	0029      	movs	r1, r5
100013d0:	0004      	movs	r4, r0
100013d2:	f7ff ffd4 	bl	1000137e <ph_remove_any_head>
100013d6:	7360      	strb	r0, [r4, #13]
100013d8:	0028      	movs	r0, r5
100013da:	bd70      	pop	{r4, r5, r6, pc}

100013dc <ph_remove_and_free_node>:
100013dc:	b570      	push	{r4, r5, r6, lr}
100013de:	0004      	movs	r4, r0
100013e0:	1e08      	subs	r0, r1, #0
100013e2:	d007      	beq.n	100013f4 <ph_remove_and_free_node+0x18>
100013e4:	7b63      	ldrb	r3, [r4, #13]
100013e6:	428b      	cmp	r3, r1
100013e8:	d105      	bne.n	100013f6 <ph_remove_and_free_node+0x1a>
100013ea:	2101      	movs	r1, #1
100013ec:	0020      	movs	r0, r4
100013ee:	f7ff ffeb 	bl	100013c8 <ph_remove_head>
100013f2:	2001      	movs	r0, #1
100013f4:	bd70      	pop	{r4, r5, r6, pc}
100013f6:	2603      	movs	r6, #3
100013f8:	0033      	movs	r3, r6
100013fa:	434b      	muls	r3, r1
100013fc:	6825      	ldr	r5, [r4, #0]
100013fe:	3b03      	subs	r3, #3
10001400:	18eb      	adds	r3, r5, r3
10001402:	789a      	ldrb	r2, [r3, #2]
10001404:	1e10      	subs	r0, r2, #0
10001406:	d0f5      	beq.n	100013f4 <ph_remove_and_free_node+0x18>
10001408:	4372      	muls	r2, r6
1000140a:	3a03      	subs	r2, #3
1000140c:	18a8      	adds	r0, r5, r2
1000140e:	5caa      	ldrb	r2, [r5, r2]
10001410:	428a      	cmp	r2, r1
10001412:	d111      	bne.n	10001438 <ph_remove_and_free_node+0x5c>
10001414:	785a      	ldrb	r2, [r3, #1]
10001416:	7002      	strb	r2, [r0, #0]
10001418:	2200      	movs	r2, #0
1000141a:	0020      	movs	r0, r4
1000141c:	709a      	strb	r2, [r3, #2]
1000141e:	705a      	strb	r2, [r3, #1]
10001420:	3201      	adds	r2, #1
10001422:	f7ff ffac 	bl	1000137e <ph_remove_any_head>
10001426:	7b61      	ldrb	r1, [r4, #13]
10001428:	0002      	movs	r2, r0
1000142a:	0020      	movs	r0, r4
1000142c:	f7ff ff47 	bl	100012be <ph_merge_nodes>
10001430:	7360      	strb	r0, [r4, #13]
10001432:	e7de      	b.n	100013f2 <ph_remove_and_free_node+0x16>
10001434:	2a00      	cmp	r2, #0
10001436:	d0ef      	beq.n	10001418 <ph_remove_and_free_node+0x3c>
10001438:	4372      	muls	r2, r6
1000143a:	3a03      	subs	r2, #3
1000143c:	18a8      	adds	r0, r5, r2
1000143e:	7842      	ldrb	r2, [r0, #1]
10001440:	428a      	cmp	r2, r1
10001442:	d1f7      	bne.n	10001434 <ph_remove_and_free_node+0x58>
10001444:	785a      	ldrb	r2, [r3, #1]
10001446:	7042      	strb	r2, [r0, #1]
10001448:	e7e6      	b.n	10001418 <ph_remove_and_free_node+0x3c>
	...

1000144c <runtime_init>:
1000144c:	4b23      	ldr	r3, [pc, #140]	; (100014dc <runtime_init+0x90>)
1000144e:	4a24      	ldr	r2, [pc, #144]	; (100014e0 <runtime_init+0x94>)
10001450:	b570      	push	{r4, r5, r6, lr}
10001452:	601a      	str	r2, [r3, #0]
10001454:	4e23      	ldr	r6, [pc, #140]	; (100014e4 <runtime_init+0x98>)
10001456:	4b24      	ldr	r3, [pc, #144]	; (100014e8 <runtime_init+0x9c>)
10001458:	4d24      	ldr	r5, [pc, #144]	; (100014ec <runtime_init+0xa0>)
1000145a:	6033      	str	r3, [r6, #0]
1000145c:	0019      	movs	r1, r3
1000145e:	68aa      	ldr	r2, [r5, #8]
10001460:	4391      	bics	r1, r2
10001462:	d1fb      	bne.n	1000145c <runtime_init+0x10>
10001464:	4c22      	ldr	r4, [pc, #136]	; (100014f0 <runtime_init+0xa4>)
10001466:	4b23      	ldr	r3, [pc, #140]	; (100014f4 <runtime_init+0xa8>)
10001468:	429c      	cmp	r4, r3
1000146a:	d324      	bcc.n	100014b6 <runtime_init+0x6a>
1000146c:	f000 f8dc 	bl	10001628 <clocks_init>
10001470:	4b21      	ldr	r3, [pc, #132]	; (100014f8 <runtime_init+0xac>)
10001472:	6033      	str	r3, [r6, #0]
10001474:	68ab      	ldr	r3, [r5, #8]
10001476:	01db      	lsls	r3, r3, #7
10001478:	3380      	adds	r3, #128	; 0x80
1000147a:	d1fb      	bne.n	10001474 <runtime_init+0x28>
1000147c:	2240      	movs	r2, #64	; 0x40
1000147e:	4b1f      	ldr	r3, [pc, #124]	; (100014fc <runtime_init+0xb0>)
10001480:	481f      	ldr	r0, [pc, #124]	; (10001500 <runtime_init+0xb4>)
10001482:	679a      	str	r2, [r3, #120]	; 0x78
10001484:	675a      	str	r2, [r3, #116]	; 0x74
10001486:	671a      	str	r2, [r3, #112]	; 0x70
10001488:	66da      	str	r2, [r3, #108]	; 0x6c
1000148a:	4b1e      	ldr	r3, [pc, #120]	; (10001504 <runtime_init+0xb8>)
1000148c:	4298      	cmp	r0, r3
1000148e:	d315      	bcc.n	100014bc <runtime_init+0x70>
10001490:	4c1d      	ldr	r4, [pc, #116]	; (10001508 <runtime_init+0xbc>)
10001492:	4d1e      	ldr	r5, [pc, #120]	; (1000150c <runtime_init+0xc0>)
10001494:	68a1      	ldr	r1, [r4, #8]
10001496:	22c0      	movs	r2, #192	; 0xc0
10001498:	0028      	movs	r0, r5
1000149a:	f000 fe99 	bl	100021d0 <__wrap___aeabi_memcpy>
1000149e:	60a5      	str	r5, [r4, #8]
100014a0:	f7ff fa84 	bl	100009ac <spin_locks_reset>
100014a4:	f000 faa0 	bl	100019e8 <irq_init_priorities>
100014a8:	f7ff fcae 	bl	10000e08 <alarm_pool_init_default>
100014ac:	4c18      	ldr	r4, [pc, #96]	; (10001510 <runtime_init+0xc4>)
100014ae:	4b19      	ldr	r3, [pc, #100]	; (10001514 <runtime_init+0xc8>)
100014b0:	429c      	cmp	r4, r3
100014b2:	d30f      	bcc.n	100014d4 <runtime_init+0x88>
100014b4:	bd70      	pop	{r4, r5, r6, pc}
100014b6:	cc08      	ldmia	r4!, {r3}
100014b8:	4798      	blx	r3
100014ba:	e7d4      	b.n	10001466 <runtime_init+0x1a>
100014bc:	0004      	movs	r4, r0
100014be:	6803      	ldr	r3, [r0, #0]
100014c0:	3408      	adds	r4, #8
100014c2:	2b00      	cmp	r3, #0
100014c4:	d003      	beq.n	100014ce <runtime_init+0x82>
100014c6:	f7ff fedc 	bl	10001282 <recursive_mutex_init>
100014ca:	0020      	movs	r0, r4
100014cc:	e7dd      	b.n	1000148a <runtime_init+0x3e>
100014ce:	f7ff fecb 	bl	10001268 <mutex_init>
100014d2:	e7fa      	b.n	100014ca <runtime_init+0x7e>
100014d4:	cc08      	ldmia	r4!, {r3}
100014d6:	4798      	blx	r3
100014d8:	e7e9      	b.n	100014ae <runtime_init+0x62>
100014da:	46c0      	nop			; (mov r8, r8)
100014dc:	4000e000 	.word	0x4000e000
100014e0:	fefbcdbf 	.word	0xfefbcdbf
100014e4:	4000f000 	.word	0x4000f000
100014e8:	003c7ffe 	.word	0x003c7ffe
100014ec:	4000c000 	.word	0x4000c000
100014f0:	2000024c 	.word	0x2000024c
100014f4:	2000025c 	.word	0x2000025c
100014f8:	01ffffff 	.word	0x01ffffff
100014fc:	4001f000 	.word	0x4001f000
10001500:	20000244 	.word	0x20000244
10001504:	2000024c 	.word	0x2000024c
10001508:	e000ed00 	.word	0xe000ed00
1000150c:	20000000 	.word	0x20000000
10001510:	2000025c 	.word	0x2000025c
10001514:	20000260 	.word	0x20000260

10001518 <exit>:
10001518:	be00      	bkpt	0x0000
1000151a:	e7fd      	b.n	10001518 <exit>

1000151c <panic>:
1000151c:	b40f      	push	{r0, r1, r2, r3}
1000151e:	b507      	push	{r0, r1, r2, lr}
10001520:	4807      	ldr	r0, [pc, #28]	; (10001540 <panic+0x24>)
10001522:	f000 ff31 	bl	10002388 <__wrap_puts>
10001526:	9b04      	ldr	r3, [sp, #16]
10001528:	2b00      	cmp	r3, #0
1000152a:	d007      	beq.n	1000153c <panic+0x20>
1000152c:	a905      	add	r1, sp, #20
1000152e:	0018      	movs	r0, r3
10001530:	9101      	str	r1, [sp, #4]
10001532:	f000 fadb 	bl	10001aec <weak_raw_vprintf>
10001536:	4803      	ldr	r0, [pc, #12]	; (10001544 <panic+0x28>)
10001538:	f000 ff26 	bl	10002388 <__wrap_puts>
1000153c:	be00      	bkpt	0x0000
1000153e:	e7fd      	b.n	1000153c <panic+0x20>
10001540:	100025ac 	.word	0x100025ac
10001544:	100025ba 	.word	0x100025ba

10001548 <hard_assertion_failure>:
10001548:	b510      	push	{r4, lr}
1000154a:	4801      	ldr	r0, [pc, #4]	; (10001550 <hard_assertion_failure+0x8>)
1000154c:	f7ff ffe6 	bl	1000151c <panic>
10001550:	100025bc 	.word	0x100025bc

10001554 <clock_configure>:
10001554:	b5f0      	push	{r4, r5, r6, r7, lr}
10001556:	b085      	sub	sp, #20
10001558:	9203      	str	r2, [sp, #12]
1000155a:	9a0a      	ldr	r2, [sp, #40]	; 0x28
1000155c:	0005      	movs	r5, r0
1000155e:	000f      	movs	r7, r1
10001560:	2000      	movs	r0, #0
10001562:	429a      	cmp	r2, r3
10001564:	d840      	bhi.n	100015e8 <clock_configure+0x94>
10001566:	240c      	movs	r4, #12
10001568:	0e1a      	lsrs	r2, r3, #24
1000156a:	021b      	lsls	r3, r3, #8
1000156c:	9202      	str	r2, [sp, #8]
1000156e:	9301      	str	r3, [sp, #4]
10001570:	9a0a      	ldr	r2, [sp, #40]	; 0x28
10001572:	0003      	movs	r3, r0
10001574:	9902      	ldr	r1, [sp, #8]
10001576:	9801      	ldr	r0, [sp, #4]
10001578:	f000 fb3e 	bl	10001bf8 <__wrap___aeabi_uldivmod>
1000157c:	436c      	muls	r4, r5
1000157e:	4b28      	ldr	r3, [pc, #160]	; (10001620 <clock_configure+0xcc>)
10001580:	0006      	movs	r6, r0
10001582:	18e4      	adds	r4, r4, r3
10001584:	6863      	ldr	r3, [r4, #4]
10001586:	4283      	cmp	r3, r0
10001588:	d200      	bcs.n	1000158c <clock_configure+0x38>
1000158a:	6060      	str	r0, [r4, #4]
1000158c:	1f2b      	subs	r3, r5, #4
1000158e:	b2db      	uxtb	r3, r3
10001590:	9300      	str	r3, [sp, #0]
10001592:	23c0      	movs	r3, #192	; 0xc0
10001594:	9a00      	ldr	r2, [sp, #0]
10001596:	019b      	lsls	r3, r3, #6
10001598:	4323      	orrs	r3, r4
1000159a:	2a01      	cmp	r2, #1
1000159c:	d826      	bhi.n	100015ec <clock_configure+0x98>
1000159e:	2f01      	cmp	r7, #1
100015a0:	d124      	bne.n	100015ec <clock_configure+0x98>
100015a2:	2203      	movs	r2, #3
100015a4:	601a      	str	r2, [r3, #0]
100015a6:	68a3      	ldr	r3, [r4, #8]
100015a8:	423b      	tst	r3, r7
100015aa:	d0fc      	beq.n	100015a6 <clock_configure+0x52>
100015ac:	9a03      	ldr	r2, [sp, #12]
100015ae:	6823      	ldr	r3, [r4, #0]
100015b0:	0152      	lsls	r2, r2, #5
100015b2:	405a      	eors	r2, r3
100015b4:	2180      	movs	r1, #128	; 0x80
100015b6:	23e0      	movs	r3, #224	; 0xe0
100015b8:	0149      	lsls	r1, r1, #5
100015ba:	401a      	ands	r2, r3
100015bc:	9b00      	ldr	r3, [sp, #0]
100015be:	4321      	orrs	r1, r4
100015c0:	600a      	str	r2, [r1, #0]
100015c2:	2b01      	cmp	r3, #1
100015c4:	d921      	bls.n	1000160a <clock_configure+0xb6>
100015c6:	2380      	movs	r3, #128	; 0x80
100015c8:	2280      	movs	r2, #128	; 0x80
100015ca:	019b      	lsls	r3, r3, #6
100015cc:	4323      	orrs	r3, r4
100015ce:	0112      	lsls	r2, r2, #4
100015d0:	601a      	str	r2, [r3, #0]
100015d2:	9801      	ldr	r0, [sp, #4]
100015d4:	2300      	movs	r3, #0
100015d6:	0032      	movs	r2, r6
100015d8:	9902      	ldr	r1, [sp, #8]
100015da:	6066      	str	r6, [r4, #4]
100015dc:	f000 fb0c 	bl	10001bf8 <__wrap___aeabi_uldivmod>
100015e0:	4b10      	ldr	r3, [pc, #64]	; (10001624 <clock_configure+0xd0>)
100015e2:	00ad      	lsls	r5, r5, #2
100015e4:	5158      	str	r0, [r3, r5]
100015e6:	2001      	movs	r0, #1
100015e8:	b005      	add	sp, #20
100015ea:	bdf0      	pop	{r4, r5, r6, r7, pc}
100015ec:	2280      	movs	r2, #128	; 0x80
100015ee:	0112      	lsls	r2, r2, #4
100015f0:	601a      	str	r2, [r3, #0]
100015f2:	4b0c      	ldr	r3, [pc, #48]	; (10001624 <clock_configure+0xd0>)
100015f4:	00aa      	lsls	r2, r5, #2
100015f6:	58d1      	ldr	r1, [r2, r3]
100015f8:	2900      	cmp	r1, #0
100015fa:	d0d7      	beq.n	100015ac <clock_configure+0x58>
100015fc:	6958      	ldr	r0, [r3, #20]
100015fe:	f000 fab9 	bl	10001b74 <__wrap___aeabi_uidiv>
10001602:	3001      	adds	r0, #1
10001604:	3801      	subs	r0, #1
10001606:	d1fd      	bne.n	10001604 <clock_configure+0xb0>
10001608:	e7d0      	b.n	100015ac <clock_configure+0x58>
1000160a:	2203      	movs	r2, #3
1000160c:	6823      	ldr	r3, [r4, #0]
1000160e:	407b      	eors	r3, r7
10001610:	4013      	ands	r3, r2
10001612:	600b      	str	r3, [r1, #0]
10001614:	2301      	movs	r3, #1
10001616:	40bb      	lsls	r3, r7
10001618:	68a2      	ldr	r2, [r4, #8]
1000161a:	4213      	tst	r3, r2
1000161c:	d0fc      	beq.n	10001618 <clock_configure+0xc4>
1000161e:	e7d2      	b.n	100015c6 <clock_configure+0x72>
10001620:	40008000 	.word	0x40008000
10001624:	20000394 	.word	0x20000394

10001628 <clocks_init>:
10001628:	b537      	push	{r0, r1, r2, r4, r5, lr}
1000162a:	200c      	movs	r0, #12
1000162c:	f000 fa3c 	bl	10001aa8 <watchdog_start_tick>
10001630:	f7ff f9b4 	bl	1000099c <running_on_fpga>
10001634:	2800      	cmp	r0, #0
10001636:	d00a      	beq.n	1000164e <clocks_init+0x26>
10001638:	2300      	movs	r3, #0
1000163a:	4a2b      	ldr	r2, [pc, #172]	; (100016e8 <clocks_init+0xc0>)
1000163c:	482b      	ldr	r0, [pc, #172]	; (100016ec <clocks_init+0xc4>)
1000163e:	0099      	lsls	r1, r3, #2
10001640:	3301      	adds	r3, #1
10001642:	5088      	str	r0, [r1, r2]
10001644:	2b0a      	cmp	r3, #10
10001646:	d1fa      	bne.n	1000163e <clocks_init+0x16>
10001648:	4b29      	ldr	r3, [pc, #164]	; (100016f0 <clocks_init+0xc8>)
1000164a:	6253      	str	r3, [r2, #36]	; 0x24
1000164c:	bd37      	pop	{r0, r1, r2, r4, r5, pc}
1000164e:	4d29      	ldr	r5, [pc, #164]	; (100016f4 <clocks_init+0xcc>)
10001650:	67a8      	str	r0, [r5, #120]	; 0x78
10001652:	f000 fa31 	bl	10001ab8 <xosc_init>
10001656:	2201      	movs	r2, #1
10001658:	4b27      	ldr	r3, [pc, #156]	; (100016f8 <clocks_init+0xd0>)
1000165a:	601a      	str	r2, [r3, #0]
1000165c:	6c6b      	ldr	r3, [r5, #68]	; 0x44
1000165e:	2b01      	cmp	r3, #1
10001660:	d1fc      	bne.n	1000165c <clocks_init+0x34>
10001662:	2203      	movs	r2, #3
10001664:	4b25      	ldr	r3, [pc, #148]	; (100016fc <clocks_init+0xd4>)
10001666:	601a      	str	r2, [r3, #0]
10001668:	6bac      	ldr	r4, [r5, #56]	; 0x38
1000166a:	2c01      	cmp	r4, #1
1000166c:	d1fc      	bne.n	10001668 <clocks_init+0x40>
1000166e:	2502      	movs	r5, #2
10001670:	0021      	movs	r1, r4
10001672:	9500      	str	r5, [sp, #0]
10001674:	2306      	movs	r3, #6
10001676:	4a22      	ldr	r2, [pc, #136]	; (10001700 <clocks_init+0xd8>)
10001678:	4822      	ldr	r0, [pc, #136]	; (10001704 <clocks_init+0xdc>)
1000167a:	f000 f9c7 	bl	10001a0c <pll_init>
1000167e:	0021      	movs	r1, r4
10001680:	9500      	str	r5, [sp, #0]
10001682:	2305      	movs	r3, #5
10001684:	4a20      	ldr	r2, [pc, #128]	; (10001708 <clocks_init+0xe0>)
10001686:	4821      	ldr	r0, [pc, #132]	; (1000170c <clocks_init+0xe4>)
10001688:	f000 f9c0 	bl	10001a0c <pll_init>
1000168c:	4b20      	ldr	r3, [pc, #128]	; (10001710 <clocks_init+0xe8>)
1000168e:	0029      	movs	r1, r5
10001690:	4d20      	ldr	r5, [pc, #128]	; (10001714 <clocks_init+0xec>)
10001692:	9300      	str	r3, [sp, #0]
10001694:	2200      	movs	r2, #0
10001696:	2004      	movs	r0, #4
10001698:	f7ff ff5c 	bl	10001554 <clock_configure>
1000169c:	002b      	movs	r3, r5
1000169e:	0021      	movs	r1, r4
100016a0:	2200      	movs	r2, #0
100016a2:	9500      	str	r5, [sp, #0]
100016a4:	2005      	movs	r0, #5
100016a6:	f7ff ff55 	bl	10001554 <clock_configure>
100016aa:	2200      	movs	r2, #0
100016ac:	4c0f      	ldr	r4, [pc, #60]	; (100016ec <clocks_init+0xc4>)
100016ae:	0011      	movs	r1, r2
100016b0:	0023      	movs	r3, r4
100016b2:	9400      	str	r4, [sp, #0]
100016b4:	2007      	movs	r0, #7
100016b6:	f7ff ff4d 	bl	10001554 <clock_configure>
100016ba:	2200      	movs	r2, #0
100016bc:	0023      	movs	r3, r4
100016be:	0011      	movs	r1, r2
100016c0:	9400      	str	r4, [sp, #0]
100016c2:	2008      	movs	r0, #8
100016c4:	f7ff ff46 	bl	10001554 <clock_configure>
100016c8:	2200      	movs	r2, #0
100016ca:	4b09      	ldr	r3, [pc, #36]	; (100016f0 <clocks_init+0xc8>)
100016cc:	0011      	movs	r1, r2
100016ce:	9300      	str	r3, [sp, #0]
100016d0:	2009      	movs	r0, #9
100016d2:	0023      	movs	r3, r4
100016d4:	f7ff ff3e 	bl	10001554 <clock_configure>
100016d8:	2200      	movs	r2, #0
100016da:	002b      	movs	r3, r5
100016dc:	0011      	movs	r1, r2
100016de:	9500      	str	r5, [sp, #0]
100016e0:	2006      	movs	r0, #6
100016e2:	f7ff ff37 	bl	10001554 <clock_configure>
100016e6:	e7b1      	b.n	1000164c <clocks_init+0x24>
100016e8:	20000394 	.word	0x20000394
100016ec:	02dc6c00 	.word	0x02dc6c00
100016f0:	0000b71b 	.word	0x0000b71b
100016f4:	40008000 	.word	0x40008000
100016f8:	4000b03c 	.word	0x4000b03c
100016fc:	4000b030 	.word	0x4000b030
10001700:	59682f00 	.word	0x59682f00
10001704:	40028000 	.word	0x40028000
10001708:	1c9c3800 	.word	0x1c9c3800
1000170c:	4002c000 	.word	0x4002c000
10001710:	00b71b00 	.word	0x00b71b00
10001714:	07735940 	.word	0x07735940

10001718 <clock_get_hz>:
10001718:	4b01      	ldr	r3, [pc, #4]	; (10001720 <clock_get_hz+0x8>)
1000171a:	0080      	lsls	r0, r0, #2
1000171c:	58c0      	ldr	r0, [r0, r3]
1000171e:	4770      	bx	lr
10001720:	20000394 	.word	0x20000394

10001724 <set_raw_irq_handler_and_unlock>:
10001724:	4b07      	ldr	r3, [pc, #28]	; (10001744 <set_raw_irq_handler_and_unlock+0x20>)
10001726:	3010      	adds	r0, #16
10001728:	689b      	ldr	r3, [r3, #8]
1000172a:	0080      	lsls	r0, r0, #2
1000172c:	50c1      	str	r1, [r0, r3]
1000172e:	f3bf 8f5f 	dmb	sy
10001732:	f3bf 8f5f 	dmb	sy
10001736:	2100      	movs	r1, #0
10001738:	4b03      	ldr	r3, [pc, #12]	; (10001748 <set_raw_irq_handler_and_unlock+0x24>)
1000173a:	6019      	str	r1, [r3, #0]
1000173c:	f382 8810 	msr	PRIMASK, r2
10001740:	4770      	bx	lr
10001742:	46c0      	nop			; (mov r8, r8)
10001744:	e000ed00 	.word	0xe000ed00
10001748:	d0000124 	.word	0xd0000124

1000174c <irq_is_enabled>:
1000174c:	2201      	movs	r2, #1
1000174e:	4082      	lsls	r2, r0
10001750:	4b03      	ldr	r3, [pc, #12]	; (10001760 <irq_is_enabled+0x14>)
10001752:	681b      	ldr	r3, [r3, #0]
10001754:	4013      	ands	r3, r2
10001756:	1e5a      	subs	r2, r3, #1
10001758:	4193      	sbcs	r3, r2
1000175a:	b2d8      	uxtb	r0, r3
1000175c:	4770      	bx	lr
1000175e:	46c0      	nop			; (mov r8, r8)
10001760:	e000e100 	.word	0xe000e100

10001764 <irq_set_mask_enabled>:
10001764:	2900      	cmp	r1, #0
10001766:	d004      	beq.n	10001772 <irq_set_mask_enabled+0xe>
10001768:	4b03      	ldr	r3, [pc, #12]	; (10001778 <irq_set_mask_enabled+0x14>)
1000176a:	6018      	str	r0, [r3, #0]
1000176c:	4b03      	ldr	r3, [pc, #12]	; (1000177c <irq_set_mask_enabled+0x18>)
1000176e:	6018      	str	r0, [r3, #0]
10001770:	4770      	bx	lr
10001772:	4b03      	ldr	r3, [pc, #12]	; (10001780 <irq_set_mask_enabled+0x1c>)
10001774:	e7fb      	b.n	1000176e <irq_set_mask_enabled+0xa>
10001776:	46c0      	nop			; (mov r8, r8)
10001778:	e000e280 	.word	0xe000e280
1000177c:	e000e100 	.word	0xe000e100
10001780:	e000e180 	.word	0xe000e180

10001784 <irq_set_enabled>:
10001784:	2301      	movs	r3, #1
10001786:	4083      	lsls	r3, r0
10001788:	b510      	push	{r4, lr}
1000178a:	0018      	movs	r0, r3
1000178c:	f7ff ffea 	bl	10001764 <irq_set_mask_enabled>
10001790:	bd10      	pop	{r4, pc}
	...

10001794 <irq_get_vtable_handler>:
10001794:	4b02      	ldr	r3, [pc, #8]	; (100017a0 <irq_get_vtable_handler+0xc>)
10001796:	3010      	adds	r0, #16
10001798:	689b      	ldr	r3, [r3, #8]
1000179a:	0080      	lsls	r0, r0, #2
1000179c:	58c0      	ldr	r0, [r0, r3]
1000179e:	4770      	bx	lr
100017a0:	e000ed00 	.word	0xe000ed00

100017a4 <irq_set_exclusive_handler>:
100017a4:	b570      	push	{r4, r5, r6, lr}
100017a6:	0004      	movs	r4, r0
100017a8:	000d      	movs	r5, r1
100017aa:	f3ef 8610 	mrs	r6, PRIMASK
100017ae:	b672      	cpsid	i
100017b0:	4a0a      	ldr	r2, [pc, #40]	; (100017dc <irq_set_exclusive_handler+0x38>)
100017b2:	6813      	ldr	r3, [r2, #0]
100017b4:	2b00      	cmp	r3, #0
100017b6:	d0fc      	beq.n	100017b2 <irq_set_exclusive_handler+0xe>
100017b8:	f3bf 8f5f 	dmb	sy
100017bc:	0020      	movs	r0, r4
100017be:	f7ff ffe9 	bl	10001794 <irq_get_vtable_handler>
100017c2:	4b07      	ldr	r3, [pc, #28]	; (100017e0 <irq_set_exclusive_handler+0x3c>)
100017c4:	4298      	cmp	r0, r3
100017c6:	d003      	beq.n	100017d0 <irq_set_exclusive_handler+0x2c>
100017c8:	42a8      	cmp	r0, r5
100017ca:	d001      	beq.n	100017d0 <irq_set_exclusive_handler+0x2c>
100017cc:	f7ff febc 	bl	10001548 <hard_assertion_failure>
100017d0:	0032      	movs	r2, r6
100017d2:	0029      	movs	r1, r5
100017d4:	0020      	movs	r0, r4
100017d6:	f7ff ffa5 	bl	10001724 <set_raw_irq_handler_and_unlock>
100017da:	bd70      	pop	{r4, r5, r6, pc}
100017dc:	d0000124 	.word	0xd0000124
100017e0:	100001cd 	.word	0x100001cd

100017e4 <irq_remove_handler>:
100017e4:	b5f0      	push	{r4, r5, r6, r7, lr}
100017e6:	b085      	sub	sp, #20
100017e8:	0005      	movs	r5, r0
100017ea:	9101      	str	r1, [sp, #4]
100017ec:	f3ef 8310 	mrs	r3, PRIMASK
100017f0:	9302      	str	r3, [sp, #8]
100017f2:	b672      	cpsid	i
100017f4:	4a49      	ldr	r2, [pc, #292]	; (1000191c <irq_remove_handler+0x138>)
100017f6:	6813      	ldr	r3, [r2, #0]
100017f8:	2b00      	cmp	r3, #0
100017fa:	d0fc      	beq.n	100017f6 <irq_remove_handler+0x12>
100017fc:	f3bf 8f5f 	dmb	sy
10001800:	002f      	movs	r7, r5
10001802:	4b47      	ldr	r3, [pc, #284]	; (10001920 <irq_remove_handler+0x13c>)
10001804:	3710      	adds	r7, #16
10001806:	689b      	ldr	r3, [r3, #8]
10001808:	00ba      	lsls	r2, r7, #2
1000180a:	58d4      	ldr	r4, [r2, r3]
1000180c:	4b45      	ldr	r3, [pc, #276]	; (10001924 <irq_remove_handler+0x140>)
1000180e:	429c      	cmp	r4, r3
10001810:	d069      	beq.n	100018e6 <irq_remove_handler+0x102>
10001812:	9a01      	ldr	r2, [sp, #4]
10001814:	4294      	cmp	r4, r2
10001816:	d100      	bne.n	1000181a <irq_remove_handler+0x36>
10001818:	e07e      	b.n	10001918 <irq_remove_handler+0x134>
1000181a:	4b43      	ldr	r3, [pc, #268]	; (10001928 <irq_remove_handler+0x144>)
1000181c:	1ae3      	subs	r3, r4, r3
1000181e:	2b2f      	cmp	r3, #47	; 0x2f
10001820:	d861      	bhi.n	100018e6 <irq_remove_handler+0x102>
10001822:	0028      	movs	r0, r5
10001824:	f7ff ff92 	bl	1000174c <irq_is_enabled>
10001828:	2100      	movs	r1, #0
1000182a:	9003      	str	r0, [sp, #12]
1000182c:	0028      	movs	r0, r5
1000182e:	f7ff ffa9 	bl	10001784 <irq_set_enabled>
10001832:	f3bf 8f5f 	dmb	sy
10001836:	f7fe fd16 	bl	10000266 <__get_current_exception>
1000183a:	1e06      	subs	r6, r0, #0
1000183c:	d003      	beq.n	10001846 <irq_remove_handler+0x62>
1000183e:	4287      	cmp	r7, r0
10001840:	d001      	beq.n	10001846 <irq_remove_handler+0x62>
10001842:	f7ff fe81 	bl	10001548 <hard_assertion_failure>
10001846:	2301      	movs	r3, #1
10001848:	0022      	movs	r2, r4
1000184a:	210c      	movs	r1, #12
1000184c:	439a      	bics	r2, r3
1000184e:	0013      	movs	r3, r2
10001850:	468c      	mov	ip, r1
10001852:	2200      	movs	r2, #0
10001854:	2106      	movs	r1, #6
10001856:	6898      	ldr	r0, [r3, #8]
10001858:	9f01      	ldr	r7, [sp, #4]
1000185a:	5659      	ldrsb	r1, [r3, r1]
1000185c:	42b8      	cmp	r0, r7
1000185e:	d114      	bne.n	1000188a <irq_remove_handler+0xa6>
10001860:	2900      	cmp	r1, #0
10001862:	da1a      	bge.n	1000189a <irq_remove_handler+0xb6>
10001864:	2e00      	cmp	r6, #0
10001866:	d14a      	bne.n	100018fe <irq_remove_handler+0x11a>
10001868:	2a00      	cmp	r2, #0
1000186a:	d046      	beq.n	100018fa <irq_remove_handler+0x116>
1000186c:	21ff      	movs	r1, #255	; 0xff
1000186e:	7191      	strb	r1, [r2, #6]
10001870:	492e      	ldr	r1, [pc, #184]	; (1000192c <irq_remove_handler+0x148>)
10001872:	8091      	strh	r1, [r2, #4]
10001874:	492e      	ldr	r1, [pc, #184]	; (10001930 <irq_remove_handler+0x14c>)
10001876:	482c      	ldr	r0, [pc, #176]	; (10001928 <irq_remove_handler+0x144>)
10001878:	780a      	ldrb	r2, [r1, #0]
1000187a:	719a      	strb	r2, [r3, #6]
1000187c:	4a2d      	ldr	r2, [pc, #180]	; (10001934 <irq_remove_handler+0x150>)
1000187e:	1a1b      	subs	r3, r3, r0
10001880:	415b      	adcs	r3, r3
10001882:	435a      	muls	r2, r3
10001884:	0d12      	lsrs	r2, r2, #20
10001886:	700a      	strb	r2, [r1, #0]
10001888:	e029      	b.n	100018de <irq_remove_handler+0xfa>
1000188a:	2900      	cmp	r1, #0
1000188c:	db27      	blt.n	100018de <irq_remove_handler+0xfa>
1000188e:	4662      	mov	r2, ip
10001890:	4351      	muls	r1, r2
10001892:	001a      	movs	r2, r3
10001894:	4b24      	ldr	r3, [pc, #144]	; (10001928 <irq_remove_handler+0x144>)
10001896:	185b      	adds	r3, r3, r1
10001898:	e7dc      	b.n	10001854 <irq_remove_handler+0x70>
1000189a:	200c      	movs	r0, #12
1000189c:	4348      	muls	r0, r1
1000189e:	4a22      	ldr	r2, [pc, #136]	; (10001928 <irq_remove_handler+0x144>)
100018a0:	1816      	adds	r6, r2, r0
100018a2:	68b7      	ldr	r7, [r6, #8]
100018a4:	609f      	str	r7, [r3, #8]
100018a6:	79f7      	ldrb	r7, [r6, #7]
100018a8:	71df      	strb	r7, [r3, #7]
100018aa:	2706      	movs	r7, #6
100018ac:	57f7      	ldrsb	r7, [r6, r7]
100018ae:	719f      	strb	r7, [r3, #6]
100018b0:	79b7      	ldrb	r7, [r6, #6]
100018b2:	2f7f      	cmp	r7, #127	; 0x7f
100018b4:	d81e      	bhi.n	100018f4 <irq_remove_handler+0x110>
100018b6:	88b6      	ldrh	r6, [r6, #4]
100018b8:	1ad2      	subs	r2, r2, r3
100018ba:	0576      	lsls	r6, r6, #21
100018bc:	1536      	asrs	r6, r6, #20
100018be:	1980      	adds	r0, r0, r6
100018c0:	1812      	adds	r2, r2, r0
100018c2:	20e0      	movs	r0, #224	; 0xe0
100018c4:	0512      	lsls	r2, r2, #20
100018c6:	0d52      	lsrs	r2, r2, #21
100018c8:	0200      	lsls	r0, r0, #8
100018ca:	4302      	orrs	r2, r0
100018cc:	809a      	strh	r2, [r3, #4]
100018ce:	220c      	movs	r2, #12
100018d0:	434a      	muls	r2, r1
100018d2:	4b15      	ldr	r3, [pc, #84]	; (10001928 <irq_remove_handler+0x144>)
100018d4:	189b      	adds	r3, r3, r2
100018d6:	4a16      	ldr	r2, [pc, #88]	; (10001930 <irq_remove_handler+0x14c>)
100018d8:	7810      	ldrb	r0, [r2, #0]
100018da:	7011      	strb	r1, [r2, #0]
100018dc:	7198      	strb	r0, [r3, #6]
100018de:	0028      	movs	r0, r5
100018e0:	9903      	ldr	r1, [sp, #12]
100018e2:	f7ff ff4f 	bl	10001784 <irq_set_enabled>
100018e6:	0021      	movs	r1, r4
100018e8:	0028      	movs	r0, r5
100018ea:	9a02      	ldr	r2, [sp, #8]
100018ec:	f7ff ff1a 	bl	10001724 <set_raw_irq_handler_and_unlock>
100018f0:	b005      	add	sp, #20
100018f2:	bdf0      	pop	{r4, r5, r6, r7, pc}
100018f4:	22bd      	movs	r2, #189	; 0xbd
100018f6:	0212      	lsls	r2, r2, #8
100018f8:	e7e8      	b.n	100018cc <irq_remove_handler+0xe8>
100018fa:	4c0a      	ldr	r4, [pc, #40]	; (10001924 <irq_remove_handler+0x140>)
100018fc:	e7ba      	b.n	10001874 <irq_remove_handler+0x90>
100018fe:	4a0e      	ldr	r2, [pc, #56]	; (10001938 <irq_remove_handler+0x154>)
10001900:	490e      	ldr	r1, [pc, #56]	; (1000193c <irq_remove_handler+0x158>)
10001902:	1ad2      	subs	r2, r2, r3
10001904:	3a08      	subs	r2, #8
10001906:	0250      	lsls	r0, r2, #9
10001908:	0d40      	lsrs	r0, r0, #21
1000190a:	4301      	orrs	r1, r0
1000190c:	8099      	strh	r1, [r3, #4]
1000190e:	490c      	ldr	r1, [pc, #48]	; (10001940 <irq_remove_handler+0x15c>)
10001910:	0852      	lsrs	r2, r2, #1
10001912:	430a      	orrs	r2, r1
10001914:	80da      	strh	r2, [r3, #6]
10001916:	e7e2      	b.n	100018de <irq_remove_handler+0xfa>
10001918:	001c      	movs	r4, r3
1000191a:	e7e4      	b.n	100018e6 <irq_remove_handler+0x102>
1000191c:	d0000124 	.word	0xd0000124
10001920:	e000ed00 	.word	0xe000ed00
10001924:	100001cd 	.word	0x100001cd
10001928:	200001bc 	.word	0x200001bc
1000192c:	ffffbd00 	.word	0xffffbd00
10001930:	200006dd 	.word	0x200006dd
10001934:	0000aaaa 	.word	0x0000aaaa
10001938:	200001f6 	.word	0x200001f6
1000193c:	fffff000 	.word	0xfffff000
10001940:	fffff800 	.word	0xfffff800

10001944 <irq_add_tail_to_free_list>:
10001944:	b5f8      	push	{r3, r4, r5, r6, r7, lr}
10001946:	2301      	movs	r3, #1
10001948:	4303      	orrs	r3, r0
1000194a:	0004      	movs	r4, r0
1000194c:	001e      	movs	r6, r3
1000194e:	f7fe fc8a 	bl	10000266 <__get_current_exception>
10001952:	f3ef 8710 	mrs	r7, PRIMASK
10001956:	b672      	cpsid	i
10001958:	4b1c      	ldr	r3, [pc, #112]	; (100019cc <irq_add_tail_to_free_list+0x88>)
1000195a:	681b      	ldr	r3, [r3, #0]
1000195c:	2b00      	cmp	r3, #0
1000195e:	d0fb      	beq.n	10001958 <irq_add_tail_to_free_list+0x14>
10001960:	f3bf 8f5f 	dmb	sy
10001964:	491a      	ldr	r1, [pc, #104]	; (100019d0 <irq_add_tail_to_free_list+0x8c>)
10001966:	0022      	movs	r2, r4
10001968:	4b1a      	ldr	r3, [pc, #104]	; (100019d4 <irq_add_tail_to_free_list+0x90>)
1000196a:	1a52      	subs	r2, r2, r1
1000196c:	4152      	adcs	r2, r2
1000196e:	4353      	muls	r3, r2
10001970:	0d1b      	lsrs	r3, r3, #20
10001972:	b25b      	sxtb	r3, r3
10001974:	469c      	mov	ip, r3
10001976:	4b18      	ldr	r3, [pc, #96]	; (100019d8 <irq_add_tail_to_free_list+0x94>)
10001978:	689a      	ldr	r2, [r3, #8]
1000197a:	0083      	lsls	r3, r0, #2
1000197c:	58d2      	ldr	r2, [r2, r3]
1000197e:	0008      	movs	r0, r1
10001980:	0015      	movs	r5, r2
10001982:	2200      	movs	r2, #0
10001984:	42b5      	cmp	r5, r6
10001986:	d114      	bne.n	100019b2 <irq_add_tail_to_free_list+0x6e>
10001988:	4a13      	ldr	r2, [pc, #76]	; (100019d8 <irq_add_tail_to_free_list+0x94>)
1000198a:	4914      	ldr	r1, [pc, #80]	; (100019dc <irq_add_tail_to_free_list+0x98>)
1000198c:	6892      	ldr	r2, [r2, #8]
1000198e:	50d1      	str	r1, [r2, r3]
10001990:	4b13      	ldr	r3, [pc, #76]	; (100019e0 <irq_add_tail_to_free_list+0x9c>)
10001992:	781a      	ldrb	r2, [r3, #0]
10001994:	71a2      	strb	r2, [r4, #6]
10001996:	4662      	mov	r2, ip
10001998:	701a      	strb	r2, [r3, #0]
1000199a:	f3bf 8f5f 	dmb	sy
1000199e:	2300      	movs	r3, #0
100019a0:	4a0a      	ldr	r2, [pc, #40]	; (100019cc <irq_add_tail_to_free_list+0x88>)
100019a2:	6013      	str	r3, [r2, #0]
100019a4:	f387 8810 	msr	PRIMASK, r7
100019a8:	bdf8      	pop	{r3, r4, r5, r6, r7, pc}
100019aa:	3201      	adds	r2, #1
100019ac:	300c      	adds	r0, #12
100019ae:	2a04      	cmp	r2, #4
100019b0:	d0ee      	beq.n	10001990 <irq_add_tail_to_free_list+0x4c>
100019b2:	2306      	movs	r3, #6
100019b4:	56c3      	ldrsb	r3, [r0, r3]
100019b6:	4563      	cmp	r3, ip
100019b8:	d1f7      	bne.n	100019aa <irq_add_tail_to_free_list+0x66>
100019ba:	230c      	movs	r3, #12
100019bc:	435a      	muls	r2, r3
100019be:	33f3      	adds	r3, #243	; 0xf3
100019c0:	1889      	adds	r1, r1, r2
100019c2:	718b      	strb	r3, [r1, #6]
100019c4:	4b07      	ldr	r3, [pc, #28]	; (100019e4 <irq_add_tail_to_free_list+0xa0>)
100019c6:	808b      	strh	r3, [r1, #4]
100019c8:	e7e2      	b.n	10001990 <irq_add_tail_to_free_list+0x4c>
100019ca:	46c0      	nop			; (mov r8, r8)
100019cc:	d0000124 	.word	0xd0000124
100019d0:	200001bc 	.word	0x200001bc
100019d4:	0000aaaa 	.word	0x0000aaaa
100019d8:	e000ed00 	.word	0xe000ed00
100019dc:	100001cd 	.word	0x100001cd
100019e0:	200006dd 	.word	0x200006dd
100019e4:	ffffbd00 	.word	0xffffbd00

100019e8 <irq_init_priorities>:
100019e8:	4b05      	ldr	r3, [pc, #20]	; (10001a00 <irq_init_priorities+0x18>)
100019ea:	4a06      	ldr	r2, [pc, #24]	; (10001a04 <irq_init_priorities+0x1c>)
100019ec:	6013      	str	r3, [r2, #0]
100019ee:	4a06      	ldr	r2, [pc, #24]	; (10001a08 <irq_init_priorities+0x20>)
100019f0:	6013      	str	r3, [r2, #0]
100019f2:	6053      	str	r3, [r2, #4]
100019f4:	6093      	str	r3, [r2, #8]
100019f6:	60d3      	str	r3, [r2, #12]
100019f8:	6113      	str	r3, [r2, #16]
100019fa:	6153      	str	r3, [r2, #20]
100019fc:	6193      	str	r3, [r2, #24]
100019fe:	4770      	bx	lr
10001a00:	80808080 	.word	0x80808080
10001a04:	e000e400 	.word	0xe000e400
10001a08:	e000e404 	.word	0xe000e404

10001a0c <pll_init>:
10001a0c:	b5f8      	push	{r3, r4, r5, r6, r7, lr}
10001a0e:	0004      	movs	r4, r0
10001a10:	200c      	movs	r0, #12
10001a12:	0017      	movs	r7, r2
10001a14:	001e      	movs	r6, r3
10001a16:	000d      	movs	r5, r1
10001a18:	f000 f8ac 	bl	10001b74 <__wrap___aeabi_uidiv>
10001a1c:	491d      	ldr	r1, [pc, #116]	; (10001a94 <pll_init+0x88>)
10001a1e:	4341      	muls	r1, r0
10001a20:	0038      	movs	r0, r7
10001a22:	f000 f8a7 	bl	10001b74 <__wrap___aeabi_uidiv>
10001a26:	9a06      	ldr	r2, [sp, #24]
10001a28:	0433      	lsls	r3, r6, #16
10001a2a:	0312      	lsls	r2, r2, #12
10001a2c:	4313      	orrs	r3, r2
10001a2e:	6822      	ldr	r2, [r4, #0]
10001a30:	2a00      	cmp	r2, #0
10001a32:	da0f      	bge.n	10001a54 <pll_init+0x48>
10001a34:	213f      	movs	r1, #63	; 0x3f
10001a36:	6822      	ldr	r2, [r4, #0]
10001a38:	400a      	ands	r2, r1
10001a3a:	42aa      	cmp	r2, r5
10001a3c:	d10a      	bne.n	10001a54 <pll_init+0x48>
10001a3e:	68a2      	ldr	r2, [r4, #8]
10001a40:	0512      	lsls	r2, r2, #20
10001a42:	0d12      	lsrs	r2, r2, #20
10001a44:	4282      	cmp	r2, r0
10001a46:	d105      	bne.n	10001a54 <pll_init+0x48>
10001a48:	21ee      	movs	r1, #238	; 0xee
10001a4a:	68e2      	ldr	r2, [r4, #12]
10001a4c:	02c9      	lsls	r1, r1, #11
10001a4e:	400a      	ands	r2, r1
10001a50:	429a      	cmp	r2, r3
10001a52:	d01b      	beq.n	10001a8c <pll_init+0x80>
10001a54:	4a10      	ldr	r2, [pc, #64]	; (10001a98 <pll_init+0x8c>)
10001a56:	4294      	cmp	r4, r2
10001a58:	d019      	beq.n	10001a8e <pll_init+0x82>
10001a5a:	2280      	movs	r2, #128	; 0x80
10001a5c:	0152      	lsls	r2, r2, #5
10001a5e:	490f      	ldr	r1, [pc, #60]	; (10001a9c <pll_init+0x90>)
10001a60:	4e0f      	ldr	r6, [pc, #60]	; (10001aa0 <pll_init+0x94>)
10001a62:	600a      	str	r2, [r1, #0]
10001a64:	490f      	ldr	r1, [pc, #60]	; (10001aa4 <pll_init+0x98>)
10001a66:	600a      	str	r2, [r1, #0]
10001a68:	0017      	movs	r7, r2
10001a6a:	68b1      	ldr	r1, [r6, #8]
10001a6c:	438f      	bics	r7, r1
10001a6e:	d1fb      	bne.n	10001a68 <pll_init+0x5c>
10001a70:	22c0      	movs	r2, #192	; 0xc0
10001a72:	1d21      	adds	r1, r4, #4
10001a74:	0192      	lsls	r2, r2, #6
10001a76:	430a      	orrs	r2, r1
10001a78:	2121      	movs	r1, #33	; 0x21
10001a7a:	6025      	str	r5, [r4, #0]
10001a7c:	60a0      	str	r0, [r4, #8]
10001a7e:	6011      	str	r1, [r2, #0]
10001a80:	6821      	ldr	r1, [r4, #0]
10001a82:	2900      	cmp	r1, #0
10001a84:	dafc      	bge.n	10001a80 <pll_init+0x74>
10001a86:	60e3      	str	r3, [r4, #12]
10001a88:	2308      	movs	r3, #8
10001a8a:	6013      	str	r3, [r2, #0]
10001a8c:	bdf8      	pop	{r3, r4, r5, r6, r7, pc}
10001a8e:	2280      	movs	r2, #128	; 0x80
10001a90:	0192      	lsls	r2, r2, #6
10001a92:	e7e4      	b.n	10001a5e <pll_init+0x52>
10001a94:	000f4240 	.word	0x000f4240
10001a98:	4002c000 	.word	0x4002c000
10001a9c:	4000e000 	.word	0x4000e000
10001aa0:	4000c000 	.word	0x4000c000
10001aa4:	4000f000 	.word	0x4000f000

10001aa8 <watchdog_start_tick>:
10001aa8:	2380      	movs	r3, #128	; 0x80
10001aaa:	4a02      	ldr	r2, [pc, #8]	; (10001ab4 <watchdog_start_tick+0xc>)
10001aac:	009b      	lsls	r3, r3, #2
10001aae:	4303      	orrs	r3, r0
10001ab0:	62d3      	str	r3, [r2, #44]	; 0x2c
10001ab2:	4770      	bx	lr
10001ab4:	40058000 	.word	0x40058000

10001ab8 <xosc_init>:
10001ab8:	22aa      	movs	r2, #170	; 0xaa
10001aba:	4b06      	ldr	r3, [pc, #24]	; (10001ad4 <xosc_init+0x1c>)
10001abc:	0112      	lsls	r2, r2, #4
10001abe:	601a      	str	r2, [r3, #0]
10001ac0:	222f      	movs	r2, #47	; 0x2f
10001ac2:	4905      	ldr	r1, [pc, #20]	; (10001ad8 <xosc_init+0x20>)
10001ac4:	60da      	str	r2, [r3, #12]
10001ac6:	4a05      	ldr	r2, [pc, #20]	; (10001adc <xosc_init+0x24>)
10001ac8:	6011      	str	r1, [r2, #0]
10001aca:	685a      	ldr	r2, [r3, #4]
10001acc:	2a00      	cmp	r2, #0
10001ace:	dafc      	bge.n	10001aca <xosc_init+0x12>
10001ad0:	4770      	bx	lr
10001ad2:	46c0      	nop			; (mov r8, r8)
10001ad4:	40024000 	.word	0x40024000
10001ad8:	00fab000 	.word	0x00fab000
10001adc:	40026000 	.word	0x40026000

10001ae0 <_out_char>:
10001ae0:	b510      	push	{r4, lr}
10001ae2:	2800      	cmp	r0, #0
10001ae4:	d001      	beq.n	10001aea <_out_char+0xa>
10001ae6:	f000 fc1f 	bl	10002328 <__wrap_putchar>
10001aea:	bd10      	pop	{r4, pc}

10001aec <weak_raw_vprintf>:
10001aec:	b51f      	push	{r0, r1, r2, r3, r4, lr}
10001aee:	4b09      	ldr	r3, [pc, #36]	; (10001b14 <weak_raw_vprintf+0x28>)
10001af0:	681c      	ldr	r4, [r3, #0]
10001af2:	2c00      	cmp	r4, #0
10001af4:	d009      	beq.n	10001b0a <weak_raw_vprintf+0x1e>
10001af6:	2201      	movs	r2, #1
10001af8:	0003      	movs	r3, r0
10001afa:	9100      	str	r1, [sp, #0]
10001afc:	4806      	ldr	r0, [pc, #24]	; (10001b18 <weak_raw_vprintf+0x2c>)
10001afe:	4252      	negs	r2, r2
10001b00:	a903      	add	r1, sp, #12
10001b02:	47a0      	blx	r4
10001b04:	2001      	movs	r0, #1
10001b06:	b004      	add	sp, #16
10001b08:	bd10      	pop	{r4, pc}
10001b0a:	f000 fc3d 	bl	10002388 <__wrap_puts>
10001b0e:	0020      	movs	r0, r4
10001b10:	e7f9      	b.n	10001b06 <weak_raw_vprintf+0x1a>
10001b12:	46c0      	nop			; (mov r8, r8)
10001b14:	20000464 	.word	0x20000464
10001b18:	10001ae1 	.word	0x10001ae1

10001b1c <__aeabi_bits_init>:
10001b1c:	4801      	ldr	r0, [pc, #4]	; (10001b24 <__aeabi_bits_init+0x8>)
10001b1e:	2104      	movs	r1, #4
10001b20:	4b01      	ldr	r3, [pc, #4]	; (10001b28 <__aeabi_bits_init+0xc>)
10001b22:	4718      	bx	r3
10001b24:	20000210 	.word	0x20000210
10001b28:	10001b4d 	.word	0x10001b4d

10001b2c <rom_func_lookup>:
10001b2c:	2314      	movs	r3, #20
10001b2e:	b510      	push	{r4, lr}
10001b30:	0001      	movs	r1, r0
10001b32:	8818      	ldrh	r0, [r3, #0]
10001b34:	3304      	adds	r3, #4
10001b36:	881b      	ldrh	r3, [r3, #0]
10001b38:	4798      	blx	r3
10001b3a:	bd10      	pop	{r4, pc}

10001b3c <rom_data_lookup>:
10001b3c:	2316      	movs	r3, #22
10001b3e:	b510      	push	{r4, lr}
10001b40:	0001      	movs	r1, r0
10001b42:	8818      	ldrh	r0, [r3, #0]
10001b44:	3302      	adds	r3, #2
10001b46:	881b      	ldrh	r3, [r3, #0]
10001b48:	4798      	blx	r3
10001b4a:	bd10      	pop	{r4, pc}

10001b4c <rom_funcs_lookup>:
10001b4c:	b5f8      	push	{r3, r4, r5, r6, r7, lr}
10001b4e:	000e      	movs	r6, r1
10001b50:	0004      	movs	r4, r0
10001b52:	2700      	movs	r7, #0
10001b54:	2501      	movs	r5, #1
10001b56:	42b7      	cmp	r7, r6
10001b58:	d101      	bne.n	10001b5e <rom_funcs_lookup+0x12>
10001b5a:	0028      	movs	r0, r5
10001b5c:	bdf8      	pop	{r3, r4, r5, r6, r7, pc}
10001b5e:	6820      	ldr	r0, [r4, #0]
10001b60:	f7ff ffe4 	bl	10001b2c <rom_func_lookup>
10001b64:	c401      	stmia	r4!, {r0}
10001b66:	1e43      	subs	r3, r0, #1
10001b68:	4198      	sbcs	r0, r3
10001b6a:	4240      	negs	r0, r0
10001b6c:	4005      	ands	r5, r0
10001b6e:	3701      	adds	r7, #1
10001b70:	e7f1      	b.n	10001b56 <rom_funcs_lookup+0xa>
	...

10001b74 <__wrap___aeabi_uidiv>:
10001b74:	4a11      	ldr	r2, [pc, #68]	; (10001bbc <divmod_u32u32_savestate+0x18>)
10001b76:	6f93      	ldr	r3, [r2, #120]	; 0x78
10001b78:	089b      	lsrs	r3, r3, #2
10001b7a:	d213      	bcs.n	10001ba4 <divmod_u32u32_savestate>

10001b7c <divmod_u32u32_unsafe>:
10001b7c:	6610      	str	r0, [r2, #96]	; 0x60
10001b7e:	6651      	str	r1, [r2, #100]	; 0x64
10001b80:	2900      	cmp	r1, #0
10001b82:	d005      	beq.n	10001b90 <divmod_u32u32_unsafe+0x14>
10001b84:	e7ff      	b.n	10001b86 <divmod_u32u32_unsafe+0xa>
10001b86:	e7ff      	b.n	10001b88 <divmod_u32u32_unsafe+0xc>
10001b88:	e7ff      	b.n	10001b8a <divmod_u32u32_unsafe+0xe>
10001b8a:	6f51      	ldr	r1, [r2, #116]	; 0x74
10001b8c:	6f10      	ldr	r0, [r2, #112]	; 0x70
10001b8e:	4770      	bx	lr
10001b90:	b504      	push	{r2, lr}
10001b92:	2800      	cmp	r0, #0
10001b94:	d001      	beq.n	10001b9a <divmod_u32u32_unsafe+0x1e>
10001b96:	2000      	movs	r0, #0
10001b98:	43c0      	mvns	r0, r0
10001b9a:	f000 fcbd 	bl	10002518 <____aeabi_idiv0_veneer>
10001b9e:	2100      	movs	r1, #0
10001ba0:	bd04      	pop	{r2, pc}
10001ba2:	46c0      	nop			; (mov r8, r8)

10001ba4 <divmod_u32u32_savestate>:
10001ba4:	b5f0      	push	{r4, r5, r6, r7, lr}
10001ba6:	6e14      	ldr	r4, [r2, #96]	; 0x60
10001ba8:	6e55      	ldr	r5, [r2, #100]	; 0x64
10001baa:	6f57      	ldr	r7, [r2, #116]	; 0x74
10001bac:	6f16      	ldr	r6, [r2, #112]	; 0x70
10001bae:	f7ff ffe5 	bl	10001b7c <divmod_u32u32_unsafe>
10001bb2:	6614      	str	r4, [r2, #96]	; 0x60
10001bb4:	6655      	str	r5, [r2, #100]	; 0x64
10001bb6:	6757      	str	r7, [r2, #116]	; 0x74
10001bb8:	6716      	str	r6, [r2, #112]	; 0x70
10001bba:	bdf0      	pop	{r4, r5, r6, r7, pc}
10001bbc:	d0000000 	.word	0xd0000000

10001bc0 <__wrap___aeabi_ldivmod>:
10001bc0:	4694      	mov	ip, r2
10001bc2:	4a4e      	ldr	r2, [pc, #312]	; (10001cfc <udiv0+0x1a>)
10001bc4:	6f92      	ldr	r2, [r2, #120]	; 0x78
10001bc6:	0892      	lsrs	r2, r2, #2
10001bc8:	4662      	mov	r2, ip
10001bca:	d201      	bcs.n	10001bd0 <divmod_s64s64_savestate>
10001bcc:	e030      	b.n	10001c30 <divmod_s64s64_unsafe>
10001bce:	46c0      	nop			; (mov r8, r8)

10001bd0 <divmod_s64s64_savestate>:
10001bd0:	b5f0      	push	{r4, r5, r6, r7, lr}
10001bd2:	4e4a      	ldr	r6, [pc, #296]	; (10001cfc <udiv0+0x1a>)
10001bd4:	6fb5      	ldr	r5, [r6, #120]	; 0x78
10001bd6:	086d      	lsrs	r5, r5, #1
10001bd8:	d3fc      	bcc.n	10001bd4 <divmod_s64s64_savestate+0x4>
10001bda:	6e34      	ldr	r4, [r6, #96]	; 0x60
10001bdc:	6e75      	ldr	r5, [r6, #100]	; 0x64
10001bde:	6f77      	ldr	r7, [r6, #116]	; 0x74
10001be0:	6f36      	ldr	r6, [r6, #112]	; 0x70
10001be2:	f000 f825 	bl	10001c30 <divmod_s64s64_unsafe>
10001be6:	4694      	mov	ip, r2
10001be8:	4a44      	ldr	r2, [pc, #272]	; (10001cfc <udiv0+0x1a>)
10001bea:	6614      	str	r4, [r2, #96]	; 0x60
10001bec:	6655      	str	r5, [r2, #100]	; 0x64
10001bee:	6757      	str	r7, [r2, #116]	; 0x74
10001bf0:	6716      	str	r6, [r2, #112]	; 0x70
10001bf2:	4662      	mov	r2, ip
10001bf4:	bdf0      	pop	{r4, r5, r6, r7, pc}
10001bf6:	46c0      	nop			; (mov r8, r8)

10001bf8 <__wrap___aeabi_uldivmod>:
10001bf8:	4694      	mov	ip, r2
10001bfa:	4a40      	ldr	r2, [pc, #256]	; (10001cfc <udiv0+0x1a>)
10001bfc:	6f92      	ldr	r2, [r2, #120]	; 0x78
10001bfe:	0892      	lsrs	r2, r2, #2
10001c00:	4662      	mov	r2, ip
10001c02:	d201      	bcs.n	10001c08 <divmod_u64u64_savestate>
10001c04:	e058      	b.n	10001cb8 <divmod_u64u64_unsafe>
10001c06:	46c0      	nop			; (mov r8, r8)

10001c08 <divmod_u64u64_savestate>:
10001c08:	b5f0      	push	{r4, r5, r6, r7, lr}
10001c0a:	4e3c      	ldr	r6, [pc, #240]	; (10001cfc <udiv0+0x1a>)
10001c0c:	6fb5      	ldr	r5, [r6, #120]	; 0x78
10001c0e:	086d      	lsrs	r5, r5, #1
10001c10:	d3fc      	bcc.n	10001c0c <divmod_u64u64_savestate+0x4>
10001c12:	6e34      	ldr	r4, [r6, #96]	; 0x60
10001c14:	6e75      	ldr	r5, [r6, #100]	; 0x64
10001c16:	6f77      	ldr	r7, [r6, #116]	; 0x74
10001c18:	6f36      	ldr	r6, [r6, #112]	; 0x70
10001c1a:	f000 f84d 	bl	10001cb8 <divmod_u64u64_unsafe>
10001c1e:	4694      	mov	ip, r2
10001c20:	4a36      	ldr	r2, [pc, #216]	; (10001cfc <udiv0+0x1a>)
10001c22:	6614      	str	r4, [r2, #96]	; 0x60
10001c24:	6655      	str	r5, [r2, #100]	; 0x64
10001c26:	6757      	str	r7, [r2, #116]	; 0x74
10001c28:	6716      	str	r6, [r2, #112]	; 0x70
10001c2a:	4662      	mov	r2, ip
10001c2c:	bdf0      	pop	{r4, r5, r6, r7, pc}
10001c2e:	46c0      	nop			; (mov r8, r8)

10001c30 <divmod_s64s64_unsafe>:
10001c30:	2b00      	cmp	r3, #0
10001c32:	db24      	blt.n	10001c7e <l41_1+0x26>
10001c34:	d011      	beq.n	10001c5a <l41_1+0x2>
10001c36:	2900      	cmp	r1, #0
10001c38:	da3e      	bge.n	10001cb8 <divmod_u64u64_unsafe>
10001c3a:	b500      	push	{lr}
10001c3c:	43c9      	mvns	r1, r1
10001c3e:	4240      	negs	r0, r0
10001c40:	d100      	bne.n	10001c44 <l39_1>
10001c42:	3101      	adds	r1, #1

10001c44 <l39_1>:
10001c44:	f000 f838 	bl	10001cb8 <divmod_u64u64_unsafe>
10001c48:	43c9      	mvns	r1, r1
10001c4a:	4240      	negs	r0, r0
10001c4c:	d100      	bne.n	10001c50 <l40_1>
10001c4e:	3101      	adds	r1, #1

10001c50 <l40_1>:
10001c50:	43db      	mvns	r3, r3
10001c52:	4252      	negs	r2, r2
10001c54:	d100      	bne.n	10001c58 <l41_1>
10001c56:	3301      	adds	r3, #1

10001c58 <l41_1>:
10001c58:	bd00      	pop	{pc}
10001c5a:	2a00      	cmp	r2, #0
10001c5c:	d1eb      	bne.n	10001c36 <divmod_s64s64_unsafe+0x6>
10001c5e:	2800      	cmp	r0, #0
10001c60:	d101      	bne.n	10001c66 <l41_1+0xe>
10001c62:	2900      	cmp	r1, #0
10001c64:	d005      	beq.n	10001c72 <l41_1+0x1a>
10001c66:	2000      	movs	r0, #0
10001c68:	0fc9      	lsrs	r1, r1, #31
10001c6a:	07c9      	lsls	r1, r1, #31
10001c6c:	d101      	bne.n	10001c72 <l41_1+0x1a>
10001c6e:	43c0      	mvns	r0, r0
10001c70:	0841      	lsrs	r1, r0, #1
10001c72:	b500      	push	{lr}
10001c74:	f000 fc48 	bl	10002508 <____aeabi_ldiv0_veneer>
10001c78:	2200      	movs	r2, #0
10001c7a:	2300      	movs	r3, #0
10001c7c:	bd00      	pop	{pc}
10001c7e:	b500      	push	{lr}
10001c80:	2900      	cmp	r1, #0
10001c82:	db0a      	blt.n	10001c9a <l43_1+0x2>
10001c84:	43db      	mvns	r3, r3
10001c86:	4252      	negs	r2, r2
10001c88:	d100      	bne.n	10001c8c <l42_1>
10001c8a:	3301      	adds	r3, #1

10001c8c <l42_1>:
10001c8c:	f000 f814 	bl	10001cb8 <divmod_u64u64_unsafe>
10001c90:	43c9      	mvns	r1, r1
10001c92:	4240      	negs	r0, r0
10001c94:	d100      	bne.n	10001c98 <l43_1>
10001c96:	3101      	adds	r1, #1

10001c98 <l43_1>:
10001c98:	bd00      	pop	{pc}
10001c9a:	43c9      	mvns	r1, r1
10001c9c:	4240      	negs	r0, r0
10001c9e:	d100      	bne.n	10001ca2 <l44_1>
10001ca0:	3101      	adds	r1, #1

10001ca2 <l44_1>:
10001ca2:	43db      	mvns	r3, r3
10001ca4:	4252      	negs	r2, r2
10001ca6:	d100      	bne.n	10001caa <l45_1>
10001ca8:	3301      	adds	r3, #1

10001caa <l45_1>:
10001caa:	f000 f805 	bl	10001cb8 <divmod_u64u64_unsafe>
10001cae:	43db      	mvns	r3, r3
10001cb0:	4252      	negs	r2, r2
10001cb2:	d100      	bne.n	10001cb6 <l46_1>
10001cb4:	3301      	adds	r3, #1

10001cb6 <l46_1>:
10001cb6:	bd00      	pop	{pc}

10001cb8 <divmod_u64u64_unsafe>:
10001cb8:	2900      	cmp	r1, #0
10001cba:	d123      	bne.n	10001d04 <y64>
10001cbc:	2b00      	cmp	r3, #0
10001cbe:	d118      	bne.n	10001cf2 <udiv0+0x10>
10001cc0:	2a00      	cmp	r2, #0
10001cc2:	d00c      	beq.n	10001cde <divmod_u64u64_unsafe+0x26>
10001cc4:	46bc      	mov	ip, r7
10001cc6:	4f0d      	ldr	r7, [pc, #52]	; (10001cfc <udiv0+0x1a>)
10001cc8:	6638      	str	r0, [r7, #96]	; 0x60
10001cca:	667a      	str	r2, [r7, #100]	; 0x64
10001ccc:	2100      	movs	r1, #0
10001cce:	2300      	movs	r3, #0
10001cd0:	e7ff      	b.n	10001cd2 <divmod_u64u64_unsafe+0x1a>
10001cd2:	e7ff      	b.n	10001cd4 <divmod_u64u64_unsafe+0x1c>
10001cd4:	e7ff      	b.n	10001cd6 <divmod_u64u64_unsafe+0x1e>
10001cd6:	6f7a      	ldr	r2, [r7, #116]	; 0x74
10001cd8:	6f38      	ldr	r0, [r7, #112]	; 0x70
10001cda:	4667      	mov	r7, ip
10001cdc:	4770      	bx	lr
10001cde:	2800      	cmp	r0, #0
10001ce0:	d001      	beq.n	10001ce6 <udiv0+0x4>

10001ce2 <udiv0>:
10001ce2:	4807      	ldr	r0, [pc, #28]	; (10001d00 <udiv0+0x1e>)
10001ce4:	0001      	movs	r1, r0
10001ce6:	b500      	push	{lr}
10001ce8:	f000 fc0e 	bl	10002508 <____aeabi_ldiv0_veneer>
10001cec:	2200      	movs	r2, #0
10001cee:	2300      	movs	r3, #0
10001cf0:	bd00      	pop	{pc}
10001cf2:	0002      	movs	r2, r0
10001cf4:	000b      	movs	r3, r1
10001cf6:	2000      	movs	r0, #0
10001cf8:	2100      	movs	r1, #0
10001cfa:	4770      	bx	lr
10001cfc:	d0000000 	.word	0xd0000000
10001d00:	ffffffff 	.word	0xffffffff

10001d04 <y64>:
10001d04:	2b00      	cmp	r3, #0
10001d06:	d000      	beq.n	10001d0a <y64+0x6>
10001d08:	e0bf      	b.n	10001e8a <y64_x48>
10001d0a:	0c13      	lsrs	r3, r2, #16
10001d0c:	d128      	bne.n	10001d60 <y64_x32>
10001d0e:	2a00      	cmp	r2, #0
10001d10:	d0e7      	beq.n	10001ce2 <udiv0>
10001d12:	b480      	push	{r7}
10001d14:	4f11      	ldr	r7, [pc, #68]	; (10001d5c <y64+0x58>)
10001d16:	6639      	str	r1, [r7, #96]	; 0x60
10001d18:	667a      	str	r2, [r7, #100]	; 0x64
10001d1a:	e7ff      	b.n	10001d1c <y64+0x18>
10001d1c:	e7ff      	b.n	10001d1e <y64+0x1a>
10001d1e:	b430      	push	{r4, r5}
10001d20:	0c04      	lsrs	r4, r0, #16
10001d22:	6f7b      	ldr	r3, [r7, #116]	; 0x74
10001d24:	6f39      	ldr	r1, [r7, #112]	; 0x70
10001d26:	041b      	lsls	r3, r3, #16
10001d28:	4323      	orrs	r3, r4
10001d2a:	663b      	str	r3, [r7, #96]	; 0x60
10001d2c:	667a      	str	r2, [r7, #100]	; 0x64
10001d2e:	e7ff      	b.n	10001d30 <y64+0x2c>
10001d30:	e7ff      	b.n	10001d32 <y64+0x2e>
10001d32:	e7ff      	b.n	10001d34 <y64+0x30>
10001d34:	46c0      	nop			; (mov r8, r8)
10001d36:	b284      	uxth	r4, r0
10001d38:	6f7b      	ldr	r3, [r7, #116]	; 0x74
10001d3a:	6f3d      	ldr	r5, [r7, #112]	; 0x70
10001d3c:	041b      	lsls	r3, r3, #16
10001d3e:	4323      	orrs	r3, r4
10001d40:	663b      	str	r3, [r7, #96]	; 0x60
10001d42:	667a      	str	r2, [r7, #100]	; 0x64
10001d44:	e7ff      	b.n	10001d46 <y64+0x42>
10001d46:	e7ff      	b.n	10001d48 <y64+0x44>
10001d48:	46c0      	nop			; (mov r8, r8)
10001d4a:	2300      	movs	r3, #0
10001d4c:	042c      	lsls	r4, r5, #16
10001d4e:	0c2d      	lsrs	r5, r5, #16
10001d50:	6f7a      	ldr	r2, [r7, #116]	; 0x74
10001d52:	6f38      	ldr	r0, [r7, #112]	; 0x70
10001d54:	1900      	adds	r0, r0, r4
10001d56:	4169      	adcs	r1, r5
10001d58:	bcb0      	pop	{r4, r5, r7}
10001d5a:	4770      	bx	lr
10001d5c:	d0000000 	.word	0xd0000000

10001d60 <y64_x32>:
10001d60:	b5f0      	push	{r4, r5, r6, r7, lr}
10001d62:	4694      	mov	ip, r2
10001d64:	2500      	movs	r5, #0
10001d66:	0e14      	lsrs	r4, r2, #24
10001d68:	d101      	bne.n	10001d6e <y64_x32+0xe>
10001d6a:	0212      	lsls	r2, r2, #8
10001d6c:	3508      	adds	r5, #8
10001d6e:	0f14      	lsrs	r4, r2, #28
10001d70:	d101      	bne.n	10001d76 <y64_x32+0x16>
10001d72:	0112      	lsls	r2, r2, #4
10001d74:	3504      	adds	r5, #4
10001d76:	0f94      	lsrs	r4, r2, #30
10001d78:	d101      	bne.n	10001d7e <y64_x32+0x1e>
10001d7a:	0092      	lsls	r2, r2, #2
10001d7c:	3502      	adds	r5, #2
10001d7e:	0fd4      	lsrs	r4, r2, #31
10001d80:	d101      	bne.n	10001d86 <y64_x32+0x26>
10001d82:	0052      	lsls	r2, r2, #1
10001d84:	3501      	adds	r5, #1
10001d86:	0bd4      	lsrs	r4, r2, #15
10001d88:	3401      	adds	r4, #1
10001d8a:	4f25      	ldr	r7, [pc, #148]	; (10001e20 <y64_x32+0xc0>)
10001d8c:	667c      	str	r4, [r7, #100]	; 0x64
10001d8e:	4c25      	ldr	r4, [pc, #148]	; (10001e24 <y64_x32+0xc4>)
10001d90:	663c      	str	r4, [r7, #96]	; 0x60
10001d92:	0c0e      	lsrs	r6, r1, #16
10001d94:	b293      	uxth	r3, r2
10001d96:	e7ff      	b.n	10001d98 <y64_x32+0x38>
10001d98:	e7ff      	b.n	10001d9a <y64_x32+0x3a>
10001d9a:	e7ff      	b.n	10001d9c <y64_x32+0x3c>
10001d9c:	6f3c      	ldr	r4, [r7, #112]	; 0x70
10001d9e:	4366      	muls	r6, r4
10001da0:	0c36      	lsrs	r6, r6, #16
10001da2:	0377      	lsls	r7, r6, #13
10001da4:	46be      	mov	lr, r7
10001da6:	4373      	muls	r3, r6
10001da8:	0bdf      	lsrs	r7, r3, #15
10001daa:	045b      	lsls	r3, r3, #17
10001dac:	1ac0      	subs	r0, r0, r3
10001dae:	41b9      	sbcs	r1, r7
10001db0:	0c13      	lsrs	r3, r2, #16
10001db2:	4373      	muls	r3, r6
10001db4:	18db      	adds	r3, r3, r3
10001db6:	1ac9      	subs	r1, r1, r3
10001db8:	08ce      	lsrs	r6, r1, #3
10001dba:	4366      	muls	r6, r4
10001dbc:	0c36      	lsrs	r6, r6, #16
10001dbe:	44b6      	add	lr, r6
10001dc0:	b293      	uxth	r3, r2
10001dc2:	4373      	muls	r3, r6
10001dc4:	0f1f      	lsrs	r7, r3, #28
10001dc6:	011b      	lsls	r3, r3, #4
10001dc8:	1ac0      	subs	r0, r0, r3
10001dca:	41b9      	sbcs	r1, r7
10001dcc:	0c13      	lsrs	r3, r2, #16
10001dce:	4373      	muls	r3, r6
10001dd0:	0b1f      	lsrs	r7, r3, #12
10001dd2:	051b      	lsls	r3, r3, #20
10001dd4:	1ac0      	subs	r0, r0, r3
10001dd6:	41b9      	sbcs	r1, r7
10001dd8:	0d86      	lsrs	r6, r0, #22
10001dda:	028f      	lsls	r7, r1, #10
10001ddc:	433e      	orrs	r6, r7
10001dde:	4366      	muls	r6, r4
10001de0:	0c36      	lsrs	r6, r6, #16
10001de2:	2d09      	cmp	r5, #9
10001de4:	db24      	blt.n	10001e30 <last0>
10001de6:	0a52      	lsrs	r2, r2, #9
10001de8:	4372      	muls	r2, r6
10001dea:	1a80      	subs	r0, r0, r2
10001dec:	0377      	lsls	r7, r6, #13
10001dee:	0a46      	lsrs	r6, r0, #9
10001df0:	4366      	muls	r6, r4
10001df2:	0c36      	lsrs	r6, r6, #16
10001df4:	2316      	movs	r3, #22
10001df6:	1b5b      	subs	r3, r3, r5
10001df8:	40de      	lsrs	r6, r3
10001dfa:	40df      	lsrs	r7, r3
10001dfc:	19bf      	adds	r7, r7, r6
10001dfe:	4664      	mov	r4, ip
10001e00:	4366      	muls	r6, r4
10001e02:	1b82      	subs	r2, r0, r6
10001e04:	4670      	mov	r0, lr
10001e06:	3504      	adds	r5, #4
10001e08:	3306      	adds	r3, #6
10001e0a:	0001      	movs	r1, r0
10001e0c:	40d9      	lsrs	r1, r3
10001e0e:	40a8      	lsls	r0, r5
10001e10:	19c0      	adds	r0, r0, r7
10001e12:	d300      	bcc.n	10001e16 <y64_x32+0xb6>
10001e14:	3101      	adds	r1, #1
10001e16:	42a2      	cmp	r2, r4
10001e18:	d206      	bcs.n	10001e28 <y64_x32+0xc8>
10001e1a:	2300      	movs	r3, #0
10001e1c:	bdf0      	pop	{r4, r5, r6, r7, pc}
10001e1e:	0000      	.short	0x0000
10001e20:	d0000000 	.word	0xd0000000
10001e24:	ffffffff 	.word	0xffffffff
10001e28:	1b12      	subs	r2, r2, r4
10001e2a:	3001      	adds	r0, #1
10001e2c:	d3f3      	bcc.n	10001e16 <y64_x32+0xb6>
10001e2e:	e7f1      	b.n	10001e14 <y64_x32+0xb4>

10001e30 <last0>:
10001e30:	2709      	movs	r7, #9
10001e32:	1b7f      	subs	r7, r7, r5
10001e34:	40fe      	lsrs	r6, r7
10001e36:	4664      	mov	r4, ip
10001e38:	b2a2      	uxth	r2, r4
10001e3a:	4372      	muls	r2, r6
10001e3c:	1a80      	subs	r0, r0, r2
10001e3e:	d200      	bcs.n	10001e42 <last0+0x12>
10001e40:	3901      	subs	r1, #1
10001e42:	0c22      	lsrs	r2, r4, #16
10001e44:	4372      	muls	r2, r6
10001e46:	0c13      	lsrs	r3, r2, #16
10001e48:	0412      	lsls	r2, r2, #16
10001e4a:	1a82      	subs	r2, r0, r2
10001e4c:	4199      	sbcs	r1, r3
10001e4e:	000b      	movs	r3, r1
10001e50:	4670      	mov	r0, lr
10001e52:	3504      	adds	r5, #4
10001e54:	3713      	adds	r7, #19
10001e56:	0001      	movs	r1, r0
10001e58:	40f9      	lsrs	r1, r7
10001e5a:	40a8      	lsls	r0, r5
10001e5c:	1980      	adds	r0, r0, r6
10001e5e:	d300      	bcc.n	10001e62 <last0+0x32>
10001e60:	3101      	adds	r1, #1
10001e62:	2b00      	cmp	r3, #0
10001e64:	d102      	bne.n	10001e6c <last0+0x3c>
10001e66:	42a2      	cmp	r2, r4
10001e68:	d20a      	bcs.n	10001e80 <last0+0x50>
10001e6a:	bdf0      	pop	{r4, r5, r6, r7, pc}
10001e6c:	3001      	adds	r0, #1
10001e6e:	d300      	bcc.n	10001e72 <last0+0x42>
10001e70:	3101      	adds	r1, #1
10001e72:	1b12      	subs	r2, r2, r4
10001e74:	d2fa      	bcs.n	10001e6c <last0+0x3c>
10001e76:	3b01      	subs	r3, #1
10001e78:	d1f8      	bne.n	10001e6c <last0+0x3c>
10001e7a:	42a2      	cmp	r2, r4
10001e7c:	d200      	bcs.n	10001e80 <last0+0x50>
10001e7e:	bdf0      	pop	{r4, r5, r6, r7, pc}
10001e80:	3001      	adds	r0, #1
10001e82:	d300      	bcc.n	10001e86 <last0+0x56>
10001e84:	3101      	adds	r1, #1
10001e86:	1b12      	subs	r2, r2, r4
10001e88:	e7f7      	b.n	10001e7a <last0+0x4a>

10001e8a <y64_x48>:
10001e8a:	b5f0      	push	{r4, r5, r6, r7, lr}
10001e8c:	0c1c      	lsrs	r4, r3, #16
10001e8e:	d000      	beq.n	10001e92 <y64_x48+0x8>
10001e90:	e080      	b.n	10001f94 <y64_x64>
10001e92:	b40c      	push	{r2, r3}
10001e94:	2500      	movs	r5, #0
10001e96:	0a1c      	lsrs	r4, r3, #8
10001e98:	d104      	bne.n	10001ea4 <y64_x48+0x1a>
10001e9a:	021b      	lsls	r3, r3, #8
10001e9c:	0e16      	lsrs	r6, r2, #24
10001e9e:	4333      	orrs	r3, r6
10001ea0:	0212      	lsls	r2, r2, #8
10001ea2:	3508      	adds	r5, #8
10001ea4:	0b1c      	lsrs	r4, r3, #12
10001ea6:	d104      	bne.n	10001eb2 <y64_x48+0x28>
10001ea8:	011b      	lsls	r3, r3, #4
10001eaa:	0f16      	lsrs	r6, r2, #28
10001eac:	4333      	orrs	r3, r6
10001eae:	0112      	lsls	r2, r2, #4
10001eb0:	3504      	adds	r5, #4
10001eb2:	0b9c      	lsrs	r4, r3, #14
10001eb4:	d104      	bne.n	10001ec0 <y64_x48+0x36>
10001eb6:	009b      	lsls	r3, r3, #2
10001eb8:	0f96      	lsrs	r6, r2, #30
10001eba:	4333      	orrs	r3, r6
10001ebc:	0092      	lsls	r2, r2, #2
10001ebe:	3502      	adds	r5, #2
10001ec0:	0bdc      	lsrs	r4, r3, #15
10001ec2:	d102      	bne.n	10001eca <y64_x48+0x40>
10001ec4:	1892      	adds	r2, r2, r2
10001ec6:	415b      	adcs	r3, r3
10001ec8:	3501      	adds	r5, #1
10001eca:	001c      	movs	r4, r3
10001ecc:	1897      	adds	r7, r2, r2
10001ece:	4164      	adcs	r4, r4
10001ed0:	3401      	adds	r4, #1
10001ed2:	4f46      	ldr	r7, [pc, #280]	; (10001fec <y64_x64+0x58>)
10001ed4:	667c      	str	r4, [r7, #100]	; 0x64
10001ed6:	4c46      	ldr	r4, [pc, #280]	; (10001ff0 <y64_x64+0x5c>)
10001ed8:	663c      	str	r4, [r7, #96]	; 0x60
10001eda:	0c0e      	lsrs	r6, r1, #16
10001edc:	e7ff      	b.n	10001ede <y64_x48+0x54>
10001ede:	e7ff      	b.n	10001ee0 <y64_x48+0x56>
10001ee0:	e7ff      	b.n	10001ee2 <y64_x48+0x58>
10001ee2:	46c0      	nop			; (mov r8, r8)
10001ee4:	6f3c      	ldr	r4, [r7, #112]	; 0x70
10001ee6:	4366      	muls	r6, r4
10001ee8:	0c36      	lsrs	r6, r6, #16
10001eea:	0377      	lsls	r7, r6, #13
10001eec:	46be      	mov	lr, r7
10001eee:	b297      	uxth	r7, r2
10001ef0:	4377      	muls	r7, r6
10001ef2:	1bc0      	subs	r0, r0, r7
10001ef4:	d200      	bcs.n	10001ef8 <y64_x48+0x6e>
10001ef6:	3901      	subs	r1, #1
10001ef8:	1bc0      	subs	r0, r0, r7
10001efa:	d200      	bcs.n	10001efe <y64_x48+0x74>
10001efc:	3901      	subs	r1, #1
10001efe:	b29f      	uxth	r7, r3
10001f00:	4377      	muls	r7, r6
10001f02:	1bc9      	subs	r1, r1, r7
10001f04:	1bc9      	subs	r1, r1, r7
10001f06:	0c17      	lsrs	r7, r2, #16
10001f08:	4377      	muls	r7, r6
10001f0a:	047e      	lsls	r6, r7, #17
10001f0c:	0bff      	lsrs	r7, r7, #15
10001f0e:	1b80      	subs	r0, r0, r6
10001f10:	41b9      	sbcs	r1, r7
10001f12:	08ce      	lsrs	r6, r1, #3
10001f14:	4366      	muls	r6, r4
10001f16:	0c36      	lsrs	r6, r6, #16
10001f18:	2d0c      	cmp	r5, #12
10001f1a:	db33      	blt.n	10001f84 <last1>
10001f1c:	44b6      	add	lr, r6
10001f1e:	0b12      	lsrs	r2, r2, #12
10001f20:	051f      	lsls	r7, r3, #20
10001f22:	433a      	orrs	r2, r7
10001f24:	0b1b      	lsrs	r3, r3, #12
10001f26:	b297      	uxth	r7, r2
10001f28:	4377      	muls	r7, r6
10001f2a:	1bc0      	subs	r0, r0, r7
10001f2c:	d200      	bcs.n	10001f30 <y64_x48+0xa6>
10001f2e:	3901      	subs	r1, #1
10001f30:	b29f      	uxth	r7, r3
10001f32:	4377      	muls	r7, r6
10001f34:	1bc9      	subs	r1, r1, r7
10001f36:	0c17      	lsrs	r7, r2, #16
10001f38:	4377      	muls	r7, r6
10001f3a:	043e      	lsls	r6, r7, #16
10001f3c:	0c3f      	lsrs	r7, r7, #16
10001f3e:	1b80      	subs	r0, r0, r6
10001f40:	41b9      	sbcs	r1, r7
10001f42:	0d86      	lsrs	r6, r0, #22
10001f44:	028f      	lsls	r7, r1, #10
10001f46:	433e      	orrs	r6, r7
10001f48:	4366      	muls	r6, r4
10001f4a:	2729      	movs	r7, #41	; 0x29
10001f4c:	1b7f      	subs	r7, r7, r5
10001f4e:	40fe      	lsrs	r6, r7
10001f50:	3d0c      	subs	r5, #12
10001f52:	4677      	mov	r7, lr
10001f54:	40af      	lsls	r7, r5
10001f56:	19bf      	adds	r7, r7, r6
10001f58:	bc30      	pop	{r4, r5}
10001f5a:	b2a2      	uxth	r2, r4
10001f5c:	b2ab      	uxth	r3, r5
10001f5e:	4372      	muls	r2, r6
10001f60:	4373      	muls	r3, r6
10001f62:	1a80      	subs	r0, r0, r2
10001f64:	4199      	sbcs	r1, r3
10001f66:	0c22      	lsrs	r2, r4, #16
10001f68:	4372      	muls	r2, r6
10001f6a:	0c13      	lsrs	r3, r2, #16
10001f6c:	0412      	lsls	r2, r2, #16
10001f6e:	1a80      	subs	r0, r0, r2
10001f70:	4199      	sbcs	r1, r3
10001f72:	0002      	movs	r2, r0
10001f74:	000b      	movs	r3, r1
10001f76:	3701      	adds	r7, #1
10001f78:	1b00      	subs	r0, r0, r4
10001f7a:	41a9      	sbcs	r1, r5
10001f7c:	d2f9      	bcs.n	10001f72 <y64_x48+0xe8>
10001f7e:	1e78      	subs	r0, r7, #1
10001f80:	2100      	movs	r1, #0
10001f82:	bdf0      	pop	{r4, r5, r6, r7, pc}

10001f84 <last1>:
10001f84:	270c      	movs	r7, #12
10001f86:	1b7f      	subs	r7, r7, r5
10001f88:	40fe      	lsrs	r6, r7
10001f8a:	4677      	mov	r7, lr
10001f8c:	0b7f      	lsrs	r7, r7, #13
10001f8e:	40af      	lsls	r7, r5
10001f90:	19ff      	adds	r7, r7, r7
10001f92:	e7e0      	b.n	10001f56 <y64_x48+0xcc>

10001f94 <y64_x64>:
10001f94:	2400      	movs	r4, #0
10001f96:	1c5d      	adds	r5, r3, #1
10001f98:	d007      	beq.n	10001faa <y64_x64+0x16>
10001f9a:	4f14      	ldr	r7, [pc, #80]	; (10001fec <y64_x64+0x58>)
10001f9c:	667d      	str	r5, [r7, #100]	; 0x64
10001f9e:	6639      	str	r1, [r7, #96]	; 0x60
10001fa0:	e7ff      	b.n	10001fa2 <y64_x64+0xe>
10001fa2:	e7ff      	b.n	10001fa4 <y64_x64+0x10>
10001fa4:	e7ff      	b.n	10001fa6 <y64_x64+0x12>
10001fa6:	e7ff      	b.n	10001fa8 <y64_x64+0x14>
10001fa8:	6f3c      	ldr	r4, [r7, #112]	; 0x70
10001faa:	b295      	uxth	r5, r2
10001fac:	b29e      	uxth	r6, r3
10001fae:	4365      	muls	r5, r4
10001fb0:	4366      	muls	r6, r4
10001fb2:	1b40      	subs	r0, r0, r5
10001fb4:	41b1      	sbcs	r1, r6
10001fb6:	0c15      	lsrs	r5, r2, #16
10001fb8:	0c1e      	lsrs	r6, r3, #16
10001fba:	4365      	muls	r5, r4
10001fbc:	4366      	muls	r6, r4
10001fbe:	0436      	lsls	r6, r6, #16
10001fc0:	0c2f      	lsrs	r7, r5, #16
10001fc2:	433e      	orrs	r6, r7
10001fc4:	042d      	lsls	r5, r5, #16
10001fc6:	1b40      	subs	r0, r0, r5
10001fc8:	41b1      	sbcs	r1, r6
10001fca:	4299      	cmp	r1, r3
10001fcc:	d204      	bcs.n	10001fd8 <y64_x64+0x44>
10001fce:	0002      	movs	r2, r0
10001fd0:	000b      	movs	r3, r1
10001fd2:	0020      	movs	r0, r4
10001fd4:	2100      	movs	r1, #0
10001fd6:	bdf0      	pop	{r4, r5, r6, r7, pc}
10001fd8:	d101      	bne.n	10001fde <y64_x64+0x4a>
10001fda:	4290      	cmp	r0, r2
10001fdc:	d3f7      	bcc.n	10001fce <y64_x64+0x3a>
10001fde:	1a80      	subs	r0, r0, r2
10001fe0:	4199      	sbcs	r1, r3
10001fe2:	3401      	adds	r4, #1
10001fe4:	4299      	cmp	r1, r3
10001fe6:	d3f2      	bcc.n	10001fce <y64_x64+0x3a>
10001fe8:	e7f6      	b.n	10001fd8 <y64_x64+0x44>
10001fea:	0000      	.short	0x0000
10001fec:	d0000000 	.word	0xd0000000
10001ff0:	ffffffff 	.word	0xffffffff

10001ff4 <__aeabi_double_init>:
10001ff4:	2313      	movs	r3, #19
10001ff6:	b570      	push	{r4, r5, r6, lr}
10001ff8:	781c      	ldrb	r4, [r3, #0]
10001ffa:	4d0f      	ldr	r5, [pc, #60]	; (10002038 <__aeabi_double_init+0x44>)
10001ffc:	2c01      	cmp	r4, #1
10001ffe:	d10e      	bne.n	1000201e <__aeabi_double_init+0x2a>
10002000:	2300      	movs	r3, #0
10002002:	490e      	ldr	r1, [pc, #56]	; (1000203c <__aeabi_double_init+0x48>)
10002004:	009a      	lsls	r2, r3, #2
10002006:	3301      	adds	r3, #1
10002008:	50a9      	str	r1, [r5, r2]
1000200a:	2b20      	cmp	r3, #32
1000200c:	d1fa      	bne.n	10002004 <__aeabi_double_init+0x10>
1000200e:	4b0b      	ldr	r3, [pc, #44]	; (1000203c <__aeabi_double_init+0x48>)
10002010:	64ab      	str	r3, [r5, #72]	; 0x48
10002012:	480b      	ldr	r0, [pc, #44]	; (10002040 <__aeabi_double_init+0x4c>)
10002014:	f7ff fd8a 	bl	10001b2c <rom_func_lookup>
10002018:	4b0a      	ldr	r3, [pc, #40]	; (10002044 <__aeabi_double_init+0x50>)
1000201a:	6018      	str	r0, [r3, #0]
1000201c:	bd70      	pop	{r4, r5, r6, pc}
1000201e:	2c01      	cmp	r4, #1
10002020:	ddf5      	ble.n	1000200e <__aeabi_double_init+0x1a>
10002022:	4809      	ldr	r0, [pc, #36]	; (10002048 <__aeabi_double_init+0x54>)
10002024:	f7ff fd8a 	bl	10001b3c <rom_data_lookup>
10002028:	2280      	movs	r2, #128	; 0x80
1000202a:	0001      	movs	r1, r0
1000202c:	0028      	movs	r0, r5
1000202e:	f000 f8cf 	bl	100021d0 <__wrap___aeabi_memcpy>
10002032:	2c02      	cmp	r4, #2
10002034:	d1ed      	bne.n	10002012 <__aeabi_double_init+0x1e>
10002036:	e7ea      	b.n	1000200e <__aeabi_double_init+0x1a>
10002038:	2000047c 	.word	0x2000047c
1000203c:	1000204d 	.word	0x1000204d
10002040:	0000334c 	.word	0x0000334c
10002044:	2000057c 	.word	0x2000057c
10002048:	00004453 	.word	0x00004453

1000204c <double_table_shim_on_use_helper>:
1000204c:	b507      	push	{r0, r1, r2, lr}
1000204e:	4660      	mov	r0, ip
10002050:	8801      	ldrh	r1, [r0, #0]
10002052:	0a0a      	lsrs	r2, r1, #8
10002054:	3002      	adds	r0, #2
10002056:	2adf      	cmp	r2, #223	; 0xdf
10002058:	d1fa      	bne.n	10002050 <double_table_shim_on_use_helper+0x4>
1000205a:	b2c9      	uxtb	r1, r1
1000205c:	0882      	lsrs	r2, r0, #2
1000205e:	d304      	bcc.n	1000206a <double_table_shim_on_use_helper+0x1e>
10002060:	8802      	ldrh	r2, [r0, #0]
10002062:	8840      	ldrh	r0, [r0, #2]
10002064:	0400      	lsls	r0, r0, #16
10002066:	4310      	orrs	r0, r2
10002068:	e000      	b.n	1000206c <double_table_shim_on_use_helper+0x20>
1000206a:	6800      	ldr	r0, [r0, #0]
1000206c:	4a01      	ldr	r2, [pc, #4]	; (10002074 <double_table_shim_on_use_helper+0x28>)
1000206e:	5050      	str	r0, [r2, r1]
10002070:	9003      	str	r0, [sp, #12]
10002072:	bd07      	pop	{r0, r1, r2, pc}
10002074:	2000047c 	.word	0x2000047c

10002078 <__wrap___aeabi_lmul>:
10002078:	4351      	muls	r1, r2
1000207a:	4343      	muls	r3, r0
1000207c:	18c9      	adds	r1, r1, r3
1000207e:	468c      	mov	ip, r1
10002080:	0c11      	lsrs	r1, r2, #16
10002082:	b283      	uxth	r3, r0
10002084:	434b      	muls	r3, r1
10002086:	b410      	push	{r4}
10002088:	0c04      	lsrs	r4, r0, #16
1000208a:	4361      	muls	r1, r4
1000208c:	b292      	uxth	r2, r2
1000208e:	b280      	uxth	r0, r0
10002090:	4350      	muls	r0, r2
10002092:	4362      	muls	r2, r4
10002094:	041c      	lsls	r4, r3, #16
10002096:	0c1b      	lsrs	r3, r3, #16
10002098:	1900      	adds	r0, r0, r4
1000209a:	bc10      	pop	{r4}
1000209c:	4159      	adcs	r1, r3
1000209e:	0413      	lsls	r3, r2, #16
100020a0:	0c12      	lsrs	r2, r2, #16
100020a2:	18c0      	adds	r0, r0, r3
100020a4:	4151      	adcs	r1, r2
100020a6:	4461      	add	r1, ip
100020a8:	4770      	bx	lr
	...

100020ac <__wrap___aeabi_frsub>:
100020ac:	4048      	eors	r0, r1
100020ae:	4041      	eors	r1, r0
100020b0:	4048      	eors	r0, r1

100020b2 <__wrap___aeabi_fsub>:
100020b2:	4b0e      	ldr	r3, [pc, #56]	; (100020ec <__wrap___aeabi_fmul+0x6>)
100020b4:	685b      	ldr	r3, [r3, #4]
100020b6:	4718      	bx	r3

100020b8 <__wrap___aeabi_fadd>:
100020b8:	4b0c      	ldr	r3, [pc, #48]	; (100020ec <__wrap___aeabi_fmul+0x6>)
100020ba:	681b      	ldr	r3, [r3, #0]
100020bc:	4718      	bx	r3

100020be <__wrap___aeabi_fdiv>:
100020be:	4a0c      	ldr	r2, [pc, #48]	; (100020f0 <__wrap___aeabi_fmul+0xa>)
100020c0:	6f93      	ldr	r3, [r2, #120]	; 0x78
100020c2:	089b      	lsrs	r3, r3, #2
100020c4:	d202      	bcs.n	100020cc <fdiv_save_state>

100020c6 <fdiv_shim_call>:
100020c6:	4b09      	ldr	r3, [pc, #36]	; (100020ec <__wrap___aeabi_fmul+0x6>)
100020c8:	68db      	ldr	r3, [r3, #12]
100020ca:	4718      	bx	r3

100020cc <fdiv_save_state>:
100020cc:	b5f0      	push	{r4, r5, r6, r7, lr}
100020ce:	6e14      	ldr	r4, [r2, #96]	; 0x60
100020d0:	6e55      	ldr	r5, [r2, #100]	; 0x64
100020d2:	6f57      	ldr	r7, [r2, #116]	; 0x74
100020d4:	6f16      	ldr	r6, [r2, #112]	; 0x70
100020d6:	f7ff fff6 	bl	100020c6 <fdiv_shim_call>
100020da:	4a05      	ldr	r2, [pc, #20]	; (100020f0 <__wrap___aeabi_fmul+0xa>)
100020dc:	6614      	str	r4, [r2, #96]	; 0x60
100020de:	6655      	str	r5, [r2, #100]	; 0x64
100020e0:	6757      	str	r7, [r2, #116]	; 0x74
100020e2:	6716      	str	r6, [r2, #112]	; 0x70
100020e4:	bdf0      	pop	{r4, r5, r6, r7, pc}

100020e6 <__wrap___aeabi_fmul>:
100020e6:	4b01      	ldr	r3, [pc, #4]	; (100020ec <__wrap___aeabi_fmul+0x6>)
100020e8:	689b      	ldr	r3, [r3, #8]
100020ea:	4718      	bx	r3
100020ec:	20000580 	.word	0x20000580
100020f0:	d0000000 	.word	0xd0000000

100020f4 <__wrap___aeabi_i2f>:
100020f4:	0fc1      	lsrs	r1, r0, #31
100020f6:	07c9      	lsls	r1, r1, #31
100020f8:	d500      	bpl.n	100020fc <__wrap___aeabi_i2f+0x8>
100020fa:	4240      	negs	r0, r0
100020fc:	2800      	cmp	r0, #0
100020fe:	d017      	beq.n	10002130 <__aeabi_i2f_main+0x30>

10002100 <__aeabi_i2f_main>:
10002100:	46f4      	mov	ip, lr
10002102:	b403      	push	{r0, r1}
10002104:	4b0b      	ldr	r3, [pc, #44]	; (10002134 <__aeabi_i2f_main+0x34>)
10002106:	681b      	ldr	r3, [r3, #0]
10002108:	4798      	blx	r3
1000210a:	bc06      	pop	{r1, r2}
1000210c:	4081      	lsls	r1, r0
1000210e:	389e      	subs	r0, #158	; 0x9e
10002110:	4240      	negs	r0, r0
10002112:	3180      	adds	r1, #128	; 0x80
10002114:	d207      	bcs.n	10002126 <__aeabi_i2f_main+0x26>
10002116:	060b      	lsls	r3, r1, #24
10002118:	d007      	beq.n	1000212a <__aeabi_i2f_main+0x2a>
1000211a:	0049      	lsls	r1, r1, #1
1000211c:	0a49      	lsrs	r1, r1, #9
1000211e:	05c0      	lsls	r0, r0, #23
10002120:	4310      	orrs	r0, r2
10002122:	4308      	orrs	r0, r1
10002124:	4760      	bx	ip
10002126:	3001      	adds	r0, #1
10002128:	e7f8      	b.n	1000211c <__aeabi_i2f_main+0x1c>
1000212a:	0a49      	lsrs	r1, r1, #9
1000212c:	0289      	lsls	r1, r1, #10
1000212e:	e7f5      	b.n	1000211c <__aeabi_i2f_main+0x1c>
10002130:	4770      	bx	lr
10002132:	0000      	.short	0x0000
10002134:	2000057c 	.word	0x2000057c

10002138 <__aeabi_float_init>:
10002138:	2313      	movs	r3, #19
1000213a:	b510      	push	{r4, lr}
1000213c:	4810      	ldr	r0, [pc, #64]	; (10002180 <__aeabi_float_init+0x48>)
1000213e:	781c      	ldrb	r4, [r3, #0]
10002140:	f7ff fcfc 	bl	10001b3c <rom_data_lookup>
10002144:	0001      	movs	r1, r0
10002146:	2c01      	cmp	r4, #1
10002148:	d113      	bne.n	10002172 <__aeabi_float_init+0x3a>
1000214a:	4c0e      	ldr	r4, [pc, #56]	; (10002184 <__aeabi_float_init+0x4c>)
1000214c:	2254      	movs	r2, #84	; 0x54
1000214e:	0020      	movs	r0, r4
10002150:	f000 f83e 	bl	100021d0 <__wrap___aeabi_memcpy>
10002154:	2315      	movs	r3, #21
10002156:	4a0c      	ldr	r2, [pc, #48]	; (10002188 <__aeabi_float_init+0x50>)
10002158:	0099      	lsls	r1, r3, #2
1000215a:	3301      	adds	r3, #1
1000215c:	5062      	str	r2, [r4, r1]
1000215e:	2b20      	cmp	r3, #32
10002160:	d1fa      	bne.n	10002158 <__aeabi_float_init+0x20>
10002162:	6222      	str	r2, [r4, #32]
10002164:	61e2      	str	r2, [r4, #28]
10002166:	4809      	ldr	r0, [pc, #36]	; (1000218c <__aeabi_float_init+0x54>)
10002168:	f7ff fce0 	bl	10001b2c <rom_func_lookup>
1000216c:	4b08      	ldr	r3, [pc, #32]	; (10002190 <__aeabi_float_init+0x58>)
1000216e:	6018      	str	r0, [r3, #0]
10002170:	bd10      	pop	{r4, pc}
10002172:	2c01      	cmp	r4, #1
10002174:	ddf7      	ble.n	10002166 <__aeabi_float_init+0x2e>
10002176:	2280      	movs	r2, #128	; 0x80
10002178:	4802      	ldr	r0, [pc, #8]	; (10002184 <__aeabi_float_init+0x4c>)
1000217a:	f000 f829 	bl	100021d0 <__wrap___aeabi_memcpy>
1000217e:	e7f2      	b.n	10002166 <__aeabi_float_init+0x2e>
10002180:	00004653 	.word	0x00004653
10002184:	20000580 	.word	0x20000580
10002188:	10002195 	.word	0x10002195
1000218c:	0000334c 	.word	0x0000334c
10002190:	2000057c 	.word	0x2000057c

10002194 <float_table_shim_on_use_helper>:
10002194:	b507      	push	{r0, r1, r2, lr}
10002196:	4660      	mov	r0, ip
10002198:	8801      	ldrh	r1, [r0, #0]
1000219a:	0a0a      	lsrs	r2, r1, #8
1000219c:	3002      	adds	r0, #2
1000219e:	2adf      	cmp	r2, #223	; 0xdf
100021a0:	d1fa      	bne.n	10002198 <float_table_shim_on_use_helper+0x4>
100021a2:	b2c9      	uxtb	r1, r1
100021a4:	0882      	lsrs	r2, r0, #2
100021a6:	d304      	bcc.n	100021b2 <float_table_shim_on_use_helper+0x1e>
100021a8:	8802      	ldrh	r2, [r0, #0]
100021aa:	8840      	ldrh	r0, [r0, #2]
100021ac:	0400      	lsls	r0, r0, #16
100021ae:	4310      	orrs	r0, r2
100021b0:	e000      	b.n	100021b4 <float_table_shim_on_use_helper+0x20>
100021b2:	6800      	ldr	r0, [r0, #0]
100021b4:	4a01      	ldr	r2, [pc, #4]	; (100021bc <float_table_shim_on_use_helper+0x28>)
100021b6:	5050      	str	r0, [r2, r1]
100021b8:	9003      	str	r0, [sp, #12]
100021ba:	bd07      	pop	{r0, r1, r2, pc}
100021bc:	20000580 	.word	0x20000580

100021c0 <__aeabi_mem_init>:
100021c0:	4801      	ldr	r0, [pc, #4]	; (100021c8 <__aeabi_mem_init+0x8>)
100021c2:	2104      	movs	r1, #4
100021c4:	4b01      	ldr	r3, [pc, #4]	; (100021cc <__aeabi_mem_init+0xc>)
100021c6:	4718      	bx	r3
100021c8:	20000220 	.word	0x20000220
100021cc:	10001b4d 	.word	0x10001b4d

100021d0 <__wrap___aeabi_memcpy>:
100021d0:	4b01      	ldr	r3, [pc, #4]	; (100021d8 <__wrap___aeabi_memcpy+0x8>)
100021d2:	685b      	ldr	r3, [r3, #4]
100021d4:	4718      	bx	r3
100021d6:	0000      	.short	0x0000
100021d8:	20000220 	.word	0x20000220

100021dc <stdio_out_chars_no_crlf>:
100021dc:	0003      	movs	r3, r0
100021de:	b510      	push	{r4, lr}
100021e0:	0008      	movs	r0, r1
100021e2:	0011      	movs	r1, r2
100021e4:	681b      	ldr	r3, [r3, #0]
100021e6:	4798      	blx	r3
100021e8:	bd10      	pop	{r4, pc}
	...

100021ec <stdio_out_chars_crlf>:
100021ec:	b5f8      	push	{r3, r4, r5, r6, r7, lr}
100021ee:	000c      	movs	r4, r1
100021f0:	2100      	movs	r1, #0
100021f2:	7c43      	ldrb	r3, [r0, #17]
100021f4:	0005      	movs	r5, r0
100021f6:	0016      	movs	r6, r2
100021f8:	0008      	movs	r0, r1
100021fa:	428b      	cmp	r3, r1
100021fc:	d11e      	bne.n	1000223c <stdio_out_chars_crlf+0x50>
100021fe:	0011      	movs	r1, r2
10002200:	0020      	movs	r0, r4
10002202:	682b      	ldr	r3, [r5, #0]
10002204:	4798      	blx	r3
10002206:	bdf8      	pop	{r3, r4, r5, r6, r7, pc}
10002208:	2900      	cmp	r1, #0
1000220a:	d027      	beq.n	1000225c <stdio_out_chars_crlf+0x70>
1000220c:	1e63      	subs	r3, r4, #1
1000220e:	5c5b      	ldrb	r3, [r3, r1]
10002210:	3b0d      	subs	r3, #13
10002212:	425a      	negs	r2, r3
10002214:	4153      	adcs	r3, r2
10002216:	b2db      	uxtb	r3, r3
10002218:	5c62      	ldrb	r2, [r4, r1]
1000221a:	1c4f      	adds	r7, r1, #1
1000221c:	2a0a      	cmp	r2, #10
1000221e:	d10c      	bne.n	1000223a <stdio_out_chars_crlf+0x4e>
10002220:	2b00      	cmp	r3, #0
10002222:	d10a      	bne.n	1000223a <stdio_out_chars_crlf+0x4e>
10002224:	4281      	cmp	r1, r0
10002226:	dd03      	ble.n	10002230 <stdio_out_chars_crlf+0x44>
10002228:	1a09      	subs	r1, r1, r0
1000222a:	682b      	ldr	r3, [r5, #0]
1000222c:	1820      	adds	r0, r4, r0
1000222e:	4798      	blx	r3
10002230:	480d      	ldr	r0, [pc, #52]	; (10002268 <stdio_out_chars_crlf+0x7c>)
10002232:	2102      	movs	r1, #2
10002234:	682b      	ldr	r3, [r5, #0]
10002236:	4798      	blx	r3
10002238:	0038      	movs	r0, r7
1000223a:	0039      	movs	r1, r7
1000223c:	428e      	cmp	r6, r1
1000223e:	dce3      	bgt.n	10002208 <stdio_out_chars_crlf+0x1c>
10002240:	4286      	cmp	r6, r0
10002242:	dd0d      	ble.n	10002260 <stdio_out_chars_crlf+0x74>
10002244:	1a31      	subs	r1, r6, r0
10002246:	682b      	ldr	r3, [r5, #0]
10002248:	1820      	adds	r0, r4, r0
1000224a:	4798      	blx	r3
1000224c:	19a4      	adds	r4, r4, r6
1000224e:	3c01      	subs	r4, #1
10002250:	7823      	ldrb	r3, [r4, #0]
10002252:	3b0d      	subs	r3, #13
10002254:	425a      	negs	r2, r3
10002256:	4153      	adcs	r3, r2
10002258:	742b      	strb	r3, [r5, #16]
1000225a:	e7d4      	b.n	10002206 <stdio_out_chars_crlf+0x1a>
1000225c:	7c2b      	ldrb	r3, [r5, #16]
1000225e:	e7db      	b.n	10002218 <stdio_out_chars_crlf+0x2c>
10002260:	2e00      	cmp	r6, #0
10002262:	ddd0      	ble.n	10002206 <stdio_out_chars_crlf+0x1a>
10002264:	e7f2      	b.n	1000224c <stdio_out_chars_crlf+0x60>
10002266:	46c0      	nop			; (mov r8, r8)
10002268:	10002629 	.word	0x10002629

1000226c <stdout_serialize_begin>:
1000226c:	23d0      	movs	r3, #208	; 0xd0
1000226e:	b537      	push	{r0, r1, r2, r4, r5, lr}
10002270:	4d08      	ldr	r5, [pc, #32]	; (10002294 <stdout_serialize_begin+0x28>)
10002272:	061b      	lsls	r3, r3, #24
10002274:	0028      	movs	r0, r5
10002276:	a901      	add	r1, sp, #4
10002278:	681c      	ldr	r4, [r3, #0]
1000227a:	f000 f955 	bl	10002528 <__mutex_try_enter_veneer>
1000227e:	2800      	cmp	r0, #0
10002280:	d107      	bne.n	10002292 <stdout_serialize_begin+0x26>
10002282:	9b01      	ldr	r3, [sp, #4]
10002284:	b264      	sxtb	r4, r4
10002286:	429c      	cmp	r4, r3
10002288:	d003      	beq.n	10002292 <stdout_serialize_begin+0x26>
1000228a:	0028      	movs	r0, r5
1000228c:	f000 f95c 	bl	10002548 <__mutex_enter_blocking_veneer>
10002290:	2001      	movs	r0, #1
10002292:	bd3e      	pop	{r1, r2, r3, r4, r5, pc}
10002294:	20000244 	.word	0x20000244

10002298 <stdout_serialize_end>:
10002298:	b510      	push	{r4, lr}
1000229a:	4802      	ldr	r0, [pc, #8]	; (100022a4 <stdout_serialize_end+0xc>)
1000229c:	f000 f92c 	bl	100024f8 <__mutex_exit_veneer>
100022a0:	bd10      	pop	{r4, pc}
100022a2:	46c0      	nop			; (mov r8, r8)
100022a4:	20000244 	.word	0x20000244

100022a8 <stdio_put_string.isra.0>:
100022a8:	b5f0      	push	{r4, r5, r6, r7, lr}
100022aa:	b085      	sub	sp, #20
100022ac:	0006      	movs	r6, r0
100022ae:	000d      	movs	r5, r1
100022b0:	001c      	movs	r4, r3
100022b2:	9200      	str	r2, [sp, #0]
100022b4:	f7ff ffda 	bl	1000226c <stdout_serialize_begin>
100022b8:	9001      	str	r0, [sp, #4]
100022ba:	1c6b      	adds	r3, r5, #1
100022bc:	d103      	bne.n	100022c6 <stdio_put_string.isra.0+0x1e>
100022be:	0030      	movs	r0, r6
100022c0:	f000 f8e8 	bl	10002494 <strlen>
100022c4:	0005      	movs	r5, r0
100022c6:	4f14      	ldr	r7, [pc, #80]	; (10002318 <stdio_put_string.isra.0+0x70>)
100022c8:	2c00      	cmp	r4, #0
100022ca:	d100      	bne.n	100022ce <stdio_put_string.isra.0+0x26>
100022cc:	4f13      	ldr	r7, [pc, #76]	; (1000231c <stdio_put_string.isra.0+0x74>)
100022ce:	4b14      	ldr	r3, [pc, #80]	; (10002320 <stdio_put_string.isra.0+0x78>)
100022d0:	681c      	ldr	r4, [r3, #0]
100022d2:	2c00      	cmp	r4, #0
100022d4:	d106      	bne.n	100022e4 <stdio_put_string.isra.0+0x3c>
100022d6:	9b01      	ldr	r3, [sp, #4]
100022d8:	2b00      	cmp	r3, #0
100022da:	d001      	beq.n	100022e0 <stdio_put_string.isra.0+0x38>
100022dc:	f7ff ffdc 	bl	10002298 <stdout_serialize_end>
100022e0:	b005      	add	sp, #20
100022e2:	bdf0      	pop	{r4, r5, r6, r7, pc}
100022e4:	6823      	ldr	r3, [r4, #0]
100022e6:	2b00      	cmp	r3, #0
100022e8:	d013      	beq.n	10002312 <stdio_put_string.isra.0+0x6a>
100022ea:	4b0e      	ldr	r3, [pc, #56]	; (10002324 <stdio_put_string.isra.0+0x7c>)
100022ec:	681b      	ldr	r3, [r3, #0]
100022ee:	2b00      	cmp	r3, #0
100022f0:	d001      	beq.n	100022f6 <stdio_put_string.isra.0+0x4e>
100022f2:	429c      	cmp	r4, r3
100022f4:	d10d      	bne.n	10002312 <stdio_put_string.isra.0+0x6a>
100022f6:	002a      	movs	r2, r5
100022f8:	0031      	movs	r1, r6
100022fa:	0020      	movs	r0, r4
100022fc:	47b8      	blx	r7
100022fe:	9b00      	ldr	r3, [sp, #0]
10002300:	2b00      	cmp	r3, #0
10002302:	d006      	beq.n	10002312 <stdio_put_string.isra.0+0x6a>
10002304:	ab02      	add	r3, sp, #8
10002306:	1dd9      	adds	r1, r3, #7
10002308:	230a      	movs	r3, #10
1000230a:	2201      	movs	r2, #1
1000230c:	0020      	movs	r0, r4
1000230e:	700b      	strb	r3, [r1, #0]
10002310:	47b8      	blx	r7
10002312:	68e4      	ldr	r4, [r4, #12]
10002314:	e7dd      	b.n	100022d2 <stdio_put_string.isra.0+0x2a>
10002316:	46c0      	nop			; (mov r8, r8)
10002318:	100021dd 	.word	0x100021dd
1000231c:	100021ed 	.word	0x100021ed
10002320:	200003bc 	.word	0x200003bc
10002324:	200003c0 	.word	0x200003c0

10002328 <__wrap_putchar>:
10002328:	b513      	push	{r0, r1, r4, lr}
1000232a:	466b      	mov	r3, sp
1000232c:	0004      	movs	r4, r0
1000232e:	1dd8      	adds	r0, r3, #7
10002330:	2300      	movs	r3, #0
10002332:	2101      	movs	r1, #1
10002334:	001a      	movs	r2, r3
10002336:	7004      	strb	r4, [r0, #0]
10002338:	f7ff ffb6 	bl	100022a8 <stdio_put_string.isra.0>
1000233c:	0020      	movs	r0, r4
1000233e:	bd16      	pop	{r1, r2, r4, pc}

10002340 <stdio_set_driver_enabled>:
10002340:	4a09      	ldr	r2, [pc, #36]	; (10002368 <stdio_set_driver_enabled+0x28>)
10002342:	6813      	ldr	r3, [r2, #0]
10002344:	2b00      	cmp	r3, #0
10002346:	d103      	bne.n	10002350 <stdio_set_driver_enabled+0x10>
10002348:	2900      	cmp	r1, #0
1000234a:	d008      	beq.n	1000235e <stdio_set_driver_enabled+0x1e>
1000234c:	6010      	str	r0, [r2, #0]
1000234e:	e006      	b.n	1000235e <stdio_set_driver_enabled+0x1e>
10002350:	4283      	cmp	r3, r0
10002352:	d105      	bne.n	10002360 <stdio_set_driver_enabled+0x20>
10002354:	2900      	cmp	r1, #0
10002356:	d102      	bne.n	1000235e <stdio_set_driver_enabled+0x1e>
10002358:	68d8      	ldr	r0, [r3, #12]
1000235a:	6010      	str	r0, [r2, #0]
1000235c:	60d9      	str	r1, [r3, #12]
1000235e:	4770      	bx	lr
10002360:	001a      	movs	r2, r3
10002362:	68db      	ldr	r3, [r3, #12]
10002364:	320c      	adds	r2, #12
10002366:	e7ed      	b.n	10002344 <stdio_set_driver_enabled+0x4>
10002368:	200003bc 	.word	0x200003bc

1000236c <stdio_flush>:
1000236c:	4b05      	ldr	r3, [pc, #20]	; (10002384 <stdio_flush+0x18>)
1000236e:	b510      	push	{r4, lr}
10002370:	681c      	ldr	r4, [r3, #0]
10002372:	2c00      	cmp	r4, #0
10002374:	d100      	bne.n	10002378 <stdio_flush+0xc>
10002376:	bd10      	pop	{r4, pc}
10002378:	6863      	ldr	r3, [r4, #4]
1000237a:	2b00      	cmp	r3, #0
1000237c:	d000      	beq.n	10002380 <stdio_flush+0x14>
1000237e:	4798      	blx	r3
10002380:	68e4      	ldr	r4, [r4, #12]
10002382:	e7f6      	b.n	10002372 <stdio_flush+0x6>
10002384:	200003bc 	.word	0x200003bc

10002388 <__wrap_puts>:
10002388:	b570      	push	{r4, r5, r6, lr}
1000238a:	0005      	movs	r5, r0
1000238c:	f000 f882 	bl	10002494 <strlen>
10002390:	0004      	movs	r4, r0
10002392:	0001      	movs	r1, r0
10002394:	2300      	movs	r3, #0
10002396:	0028      	movs	r0, r5
10002398:	2201      	movs	r2, #1
1000239a:	f7ff ff85 	bl	100022a8 <stdio_put_string.isra.0>
1000239e:	f7ff ffe5 	bl	1000236c <stdio_flush>
100023a2:	0020      	movs	r0, r4
100023a4:	bd70      	pop	{r4, r5, r6, pc}

100023a6 <stdio_init_all>:
100023a6:	b510      	push	{r4, lr}
100023a8:	f000 f860 	bl	1000246c <stdio_uart_init>
100023ac:	bd10      	pop	{r4, pc}
	...

100023b0 <stdio_uart_in_chars>:
100023b0:	4b0b      	ldr	r3, [pc, #44]	; (100023e0 <stdio_uart_in_chars+0x30>)
100023b2:	b570      	push	{r4, r5, r6, lr}
100023b4:	681a      	ldr	r2, [r3, #0]
100023b6:	0004      	movs	r4, r0
100023b8:	2300      	movs	r3, #0
100023ba:	2510      	movs	r5, #16
100023bc:	0018      	movs	r0, r3
100023be:	428b      	cmp	r3, r1
100023c0:	db04      	blt.n	100023cc <stdio_uart_in_chars+0x1c>
100023c2:	2b00      	cmp	r3, #0
100023c4:	d101      	bne.n	100023ca <stdio_uart_in_chars+0x1a>
100023c6:	2003      	movs	r0, #3
100023c8:	4240      	negs	r0, r0
100023ca:	bd70      	pop	{r4, r5, r6, pc}
100023cc:	6996      	ldr	r6, [r2, #24]
100023ce:	422e      	tst	r6, r5
100023d0:	d1f7      	bne.n	100023c2 <stdio_uart_in_chars+0x12>
100023d2:	6990      	ldr	r0, [r2, #24]
100023d4:	4228      	tst	r0, r5
100023d6:	d1fc      	bne.n	100023d2 <stdio_uart_in_chars+0x22>
100023d8:	6810      	ldr	r0, [r2, #0]
100023da:	54e0      	strb	r0, [r4, r3]
100023dc:	3301      	adds	r3, #1
100023de:	e7ed      	b.n	100023bc <stdio_uart_in_chars+0xc>
100023e0:	20000694 	.word	0x20000694

100023e4 <stdio_uart_out_chars>:
100023e4:	b5f7      	push	{r0, r1, r2, r4, r5, r6, r7, lr}
100023e6:	4b10      	ldr	r3, [pc, #64]	; (10002428 <stdio_uart_out_chars+0x44>)
100023e8:	4a10      	ldr	r2, [pc, #64]	; (1000242c <stdio_uart_out_chars+0x48>)
100023ea:	681b      	ldr	r3, [r3, #0]
100023ec:	9101      	str	r1, [sp, #4]
100023ee:	189a      	adds	r2, r3, r2
100023f0:	4251      	negs	r1, r2
100023f2:	414a      	adcs	r2, r1
100023f4:	2420      	movs	r4, #32
100023f6:	2100      	movs	r1, #0
100023f8:	4e0d      	ldr	r6, [pc, #52]	; (10002430 <stdio_uart_out_chars+0x4c>)
100023fa:	9000      	str	r0, [sp, #0]
100023fc:	0052      	lsls	r2, r2, #1
100023fe:	9d01      	ldr	r5, [sp, #4]
10002400:	42a9      	cmp	r1, r5
10002402:	db00      	blt.n	10002406 <stdio_uart_out_chars+0x22>
10002404:	bdf7      	pop	{r0, r1, r2, r4, r5, r6, r7, pc}
10002406:	9800      	ldr	r0, [sp, #0]
10002408:	5c45      	ldrb	r5, [r0, r1]
1000240a:	5f97      	ldrsh	r7, [r2, r6]
1000240c:	42af      	cmp	r7, r5
1000240e:	d104      	bne.n	1000241a <stdio_uart_out_chars+0x36>
10002410:	699f      	ldr	r7, [r3, #24]
10002412:	4227      	tst	r7, r4
10002414:	d1fc      	bne.n	10002410 <stdio_uart_out_chars+0x2c>
10002416:	200d      	movs	r0, #13
10002418:	6018      	str	r0, [r3, #0]
1000241a:	699f      	ldr	r7, [r3, #24]
1000241c:	4227      	tst	r7, r4
1000241e:	d1fc      	bne.n	1000241a <stdio_uart_out_chars+0x36>
10002420:	601d      	str	r5, [r3, #0]
10002422:	3101      	adds	r1, #1
10002424:	e7eb      	b.n	100023fe <stdio_uart_out_chars+0x1a>
10002426:	46c0      	nop			; (mov r8, r8)
10002428:	20000694 	.word	0x20000694
1000242c:	bffc8000 	.word	0xbffc8000
10002430:	20000698 	.word	0x20000698

10002434 <stdio_uart_init_full>:
10002434:	b570      	push	{r4, r5, r6, lr}
10002436:	001c      	movs	r4, r3
10002438:	4b0a      	ldr	r3, [pc, #40]	; (10002464 <stdio_uart_init_full+0x30>)
1000243a:	0015      	movs	r5, r2
1000243c:	6018      	str	r0, [r3, #0]
1000243e:	f7fe fafd 	bl	10000a3c <uart_init>
10002442:	2d00      	cmp	r5, #0
10002444:	db03      	blt.n	1000244e <stdio_uart_init_full+0x1a>
10002446:	2102      	movs	r1, #2
10002448:	0028      	movs	r0, r5
1000244a:	f7fe fa31 	bl	100008b0 <gpio_set_function>
1000244e:	2c00      	cmp	r4, #0
10002450:	db03      	blt.n	1000245a <stdio_uart_init_full+0x26>
10002452:	2102      	movs	r1, #2
10002454:	0020      	movs	r0, r4
10002456:	f7fe fa2b 	bl	100008b0 <gpio_set_function>
1000245a:	2101      	movs	r1, #1
1000245c:	4802      	ldr	r0, [pc, #8]	; (10002468 <stdio_uart_init_full+0x34>)
1000245e:	f7ff ff6f 	bl	10002340 <stdio_set_driver_enabled>
10002462:	bd70      	pop	{r4, r5, r6, pc}
10002464:	20000694 	.word	0x20000694
10002468:	20000230 	.word	0x20000230

1000246c <stdio_uart_init>:
1000246c:	21e1      	movs	r1, #225	; 0xe1
1000246e:	b510      	push	{r4, lr}
10002470:	4b05      	ldr	r3, [pc, #20]	; (10002488 <stdio_uart_init+0x1c>)
10002472:	2200      	movs	r2, #0
10002474:	781b      	ldrb	r3, [r3, #0]
10002476:	4b05      	ldr	r3, [pc, #20]	; (1000248c <stdio_uart_init+0x20>)
10002478:	4805      	ldr	r0, [pc, #20]	; (10002490 <stdio_uart_init+0x24>)
1000247a:	781b      	ldrb	r3, [r3, #0]
1000247c:	0249      	lsls	r1, r1, #9
1000247e:	2301      	movs	r3, #1
10002480:	f7ff ffd8 	bl	10002434 <stdio_uart_init_full>
10002484:	bd10      	pop	{r4, pc}
10002486:	46c0      	nop			; (mov r8, r8)
10002488:	10002688 	.word	0x10002688
1000248c:	1000268c 	.word	0x1000268c
10002490:	40034000 	.word	0x40034000

10002494 <strlen>:
10002494:	b510      	push	{r4, lr}
10002496:	0783      	lsls	r3, r0, #30
10002498:	d00a      	beq.n	100024b0 <strlen+0x1c>
1000249a:	0003      	movs	r3, r0
1000249c:	2103      	movs	r1, #3
1000249e:	e002      	b.n	100024a6 <strlen+0x12>
100024a0:	3301      	adds	r3, #1
100024a2:	420b      	tst	r3, r1
100024a4:	d005      	beq.n	100024b2 <strlen+0x1e>
100024a6:	781a      	ldrb	r2, [r3, #0]
100024a8:	2a00      	cmp	r2, #0
100024aa:	d1f9      	bne.n	100024a0 <strlen+0xc>
100024ac:	1a18      	subs	r0, r3, r0
100024ae:	bd10      	pop	{r4, pc}
100024b0:	0003      	movs	r3, r0
100024b2:	6819      	ldr	r1, [r3, #0]
100024b4:	4a0c      	ldr	r2, [pc, #48]	; (100024e8 <strlen+0x54>)
100024b6:	4c0d      	ldr	r4, [pc, #52]	; (100024ec <strlen+0x58>)
100024b8:	188a      	adds	r2, r1, r2
100024ba:	438a      	bics	r2, r1
100024bc:	4222      	tst	r2, r4
100024be:	d10f      	bne.n	100024e0 <strlen+0x4c>
100024c0:	6859      	ldr	r1, [r3, #4]
100024c2:	4a09      	ldr	r2, [pc, #36]	; (100024e8 <strlen+0x54>)
100024c4:	3304      	adds	r3, #4
100024c6:	188a      	adds	r2, r1, r2
100024c8:	438a      	bics	r2, r1
100024ca:	4222      	tst	r2, r4
100024cc:	d108      	bne.n	100024e0 <strlen+0x4c>
100024ce:	6859      	ldr	r1, [r3, #4]
100024d0:	4a05      	ldr	r2, [pc, #20]	; (100024e8 <strlen+0x54>)
100024d2:	3304      	adds	r3, #4
100024d4:	188a      	adds	r2, r1, r2
100024d6:	438a      	bics	r2, r1
100024d8:	4222      	tst	r2, r4
100024da:	d0f1      	beq.n	100024c0 <strlen+0x2c>
100024dc:	e000      	b.n	100024e0 <strlen+0x4c>
100024de:	3301      	adds	r3, #1
100024e0:	781a      	ldrb	r2, [r3, #0]
100024e2:	2a00      	cmp	r2, #0
100024e4:	d1fb      	bne.n	100024de <strlen+0x4a>
100024e6:	e7e1      	b.n	100024ac <strlen+0x18>
100024e8:	fefefeff 	.word	0xfefefeff
100024ec:	80808080 	.word	0x80808080

100024f0 <_fini>:
100024f0:	b5f8      	push	{r3, r4, r5, r6, r7, lr}
100024f2:	46c0      	nop			; (mov r8, r8)
100024f4:	0000      	movs	r0, r0
	...

100024f8 <__mutex_exit_veneer>:
100024f8:	b401      	push	{r0}
100024fa:	4802      	ldr	r0, [pc, #8]	; (10002504 <__mutex_exit_veneer+0xc>)
100024fc:	4684      	mov	ip, r0
100024fe:	bc01      	pop	{r0}
10002500:	4760      	bx	ip
10002502:	bf00      	nop
10002504:	20000145 	.word	0x20000145

10002508 <____aeabi_ldiv0_veneer>:
10002508:	b401      	push	{r0}
1000250a:	4802      	ldr	r0, [pc, #8]	; (10002514 <____aeabi_ldiv0_veneer+0xc>)
1000250c:	4684      	mov	ip, r0
1000250e:	bc01      	pop	{r0}
10002510:	4760      	bx	ip
10002512:	bf00      	nop
10002514:	20000181 	.word	0x20000181

10002518 <____aeabi_idiv0_veneer>:
10002518:	b401      	push	{r0}
1000251a:	4802      	ldr	r0, [pc, #8]	; (10002524 <____aeabi_idiv0_veneer+0xc>)
1000251c:	4684      	mov	ip, r0
1000251e:	bc01      	pop	{r0}
10002520:	4760      	bx	ip
10002522:	bf00      	nop
10002524:	20000181 	.word	0x20000181

10002528 <__mutex_try_enter_veneer>:
10002528:	b401      	push	{r0}
1000252a:	4802      	ldr	r0, [pc, #8]	; (10002534 <__mutex_try_enter_veneer+0xc>)
1000252c:	4684      	mov	ip, r0
1000252e:	bc01      	pop	{r0}
10002530:	4760      	bx	ip
10002532:	bf00      	nop
10002534:	20000103 	.word	0x20000103

10002538 <____gnu_thumb1_case_uqi_veneer>:
10002538:	b401      	push	{r0}
1000253a:	4802      	ldr	r0, [pc, #8]	; (10002544 <____gnu_thumb1_case_uqi_veneer+0xc>)
1000253c:	4684      	mov	ip, r0
1000253e:	bc01      	pop	{r0}
10002540:	4760      	bx	ip
10002542:	bf00      	nop
10002544:	2000016d 	.word	0x2000016d

10002548 <__mutex_enter_blocking_veneer>:
10002548:	b401      	push	{r0}
1000254a:	4802      	ldr	r0, [pc, #8]	; (10002554 <__mutex_enter_blocking_veneer+0xc>)
1000254c:	4684      	mov	ip, r0
1000254e:	bc01      	pop	{r0}
10002550:	4760      	bx	ip
10002552:	bf00      	nop
10002554:	200000c1 	.word	0x200000c1

Disassembly of section .data:

200000c0 <mutex_enter_blocking>:
200000c0:	23d0      	movs	r3, #208	; 0xd0
200000c2:	b530      	push	{r4, r5, lr}
200000c4:	2400      	movs	r4, #0
200000c6:	2100      	movs	r1, #0
200000c8:	061b      	lsls	r3, r3, #24
200000ca:	571c      	ldrsb	r4, [r3, r4]
200000cc:	6805      	ldr	r5, [r0, #0]
200000ce:	f3ef 8310 	mrs	r3, PRIMASK
200000d2:	b672      	cpsid	i
200000d4:	682a      	ldr	r2, [r5, #0]
200000d6:	2a00      	cmp	r2, #0
200000d8:	d0fc      	beq.n	200000d4 <mutex_enter_blocking+0x14>
200000da:	f3bf 8f5f 	dmb	sy
200000de:	7905      	ldrb	r5, [r0, #4]
200000e0:	6802      	ldr	r2, [r0, #0]
200000e2:	2d7f      	cmp	r5, #127	; 0x7f
200000e4:	d906      	bls.n	200000f4 <mutex_enter_blocking+0x34>
200000e6:	7104      	strb	r4, [r0, #4]
200000e8:	f3bf 8f5f 	dmb	sy
200000ec:	6011      	str	r1, [r2, #0]
200000ee:	f383 8810 	msr	PRIMASK, r3
200000f2:	bd30      	pop	{r4, r5, pc}
200000f4:	f3bf 8f5f 	dmb	sy
200000f8:	6011      	str	r1, [r2, #0]
200000fa:	f383 8810 	msr	PRIMASK, r3
200000fe:	bf20      	wfe
20000100:	e7e4      	b.n	200000cc <mutex_enter_blocking+0xc>

20000102 <mutex_try_enter>:
20000102:	0003      	movs	r3, r0
20000104:	b510      	push	{r4, lr}
20000106:	6800      	ldr	r0, [r0, #0]
20000108:	f3ef 8410 	mrs	r4, PRIMASK
2000010c:	b672      	cpsid	i
2000010e:	6802      	ldr	r2, [r0, #0]
20000110:	2a00      	cmp	r2, #0
20000112:	d0fc      	beq.n	2000010e <mutex_try_enter+0xc>
20000114:	f3bf 8f5f 	dmb	sy
20000118:	2204      	movs	r2, #4
2000011a:	569a      	ldrsb	r2, [r3, r2]
2000011c:	2a00      	cmp	r2, #0
2000011e:	da0c      	bge.n	2000013a <mutex_try_enter+0x38>
20000120:	22d0      	movs	r2, #208	; 0xd0
20000122:	2001      	movs	r0, #1
20000124:	0612      	lsls	r2, r2, #24
20000126:	6812      	ldr	r2, [r2, #0]
20000128:	711a      	strb	r2, [r3, #4]
2000012a:	681b      	ldr	r3, [r3, #0]
2000012c:	f3bf 8f5f 	dmb	sy
20000130:	2200      	movs	r2, #0
20000132:	601a      	str	r2, [r3, #0]
20000134:	f384 8810 	msr	PRIMASK, r4
20000138:	bd10      	pop	{r4, pc}
2000013a:	1e08      	subs	r0, r1, #0
2000013c:	d0f5      	beq.n	2000012a <mutex_try_enter+0x28>
2000013e:	2000      	movs	r0, #0
20000140:	600a      	str	r2, [r1, #0]
20000142:	e7f2      	b.n	2000012a <mutex_try_enter+0x28>

20000144 <mutex_exit>:
20000144:	6801      	ldr	r1, [r0, #0]
20000146:	f3ef 8310 	mrs	r3, PRIMASK
2000014a:	b672      	cpsid	i
2000014c:	680a      	ldr	r2, [r1, #0]
2000014e:	2a00      	cmp	r2, #0
20000150:	d0fc      	beq.n	2000014c <mutex_exit+0x8>
20000152:	f3bf 8f5f 	dmb	sy
20000156:	22ff      	movs	r2, #255	; 0xff
20000158:	7102      	strb	r2, [r0, #4]
2000015a:	6802      	ldr	r2, [r0, #0]
2000015c:	f3bf 8f5f 	dmb	sy
20000160:	2100      	movs	r1, #0
20000162:	6011      	str	r1, [r2, #0]
20000164:	f383 8810 	msr	PRIMASK, r3
20000168:	bf40      	sev
2000016a:	4770      	bx	lr

2000016c <__gnu_thumb1_case_uqi>:
2000016c:	b402      	push	{r1}
2000016e:	4671      	mov	r1, lr
20000170:	0849      	lsrs	r1, r1, #1
20000172:	0049      	lsls	r1, r1, #1
20000174:	5c09      	ldrb	r1, [r1, r0]
20000176:	0049      	lsls	r1, r1, #1
20000178:	448e      	add	lr, r1
2000017a:	bc02      	pop	{r1}
2000017c:	4770      	bx	lr
2000017e:	46c0      	nop			; (mov r8, r8)

20000180 <__aeabi_idiv0>:
20000180:	4770      	bx	lr
20000182:	46c0      	nop			; (mov r8, r8)

20000184 <B>:
20000184:	0000 437f                                   ...C

20000188 <G>:
20000188:	0000 437f                                   ...C

2000018c <R>:
2000018c:	0000 437f                                   ...C

20000190 <striped_spin_lock_num>:
20000190:	0010 0000                                   ....

20000194 <default_alarm_pool>:
20000194:	01ac 2000 0000 0000 0260 2000 069d 2000     ... ....`.. ... 
	...

200001ac <default_alarm_pool_heap>:
200001ac:	06ad 2000 0000 0000 0000 0000 0010 0000     ... ............

200001bc <irq_handler_chain_slots>:
200001bc:	00000000 	.word	0x00000000
200001c0:	00010000 	.word	0x00010000
	...
200001cc:	00020000 	.word	0x00020000
	...
200001d8:	00030000 	.word	0x00030000
	...
200001e4:	00ff0000 	.word	0x00ff0000
200001e8:	00000000 	.word	0x00000000

200001ec <irq_handler_chain_first_slot>:
200001ec:	b500      	push	{lr}
200001ee:	6848      	ldr	r0, [r1, #4]
200001f0:	3101      	adds	r1, #1
200001f2:	468e      	mov	lr, r1
200001f4:	4700      	bx	r0

200001f6 <irq_handler_chain_remove_tail>:
200001f6:	4670      	mov	r0, lr
200001f8:	3809      	subs	r0, #9
200001fa:	4901      	ldr	r1, [pc, #4]	; (20000200 <irq_handler_chain_remove_tail+0xa>)
200001fc:	4788      	blx	r1
200001fe:	bd00      	pop	{pc}
20000200:	10001945 	.word	0x10001945
	...

20000210 <aeabi_bits_funcs>:
20000210:	00003350 	.word	0x00003350
20000214:	0000334c 	.word	0x0000334c
20000218:	00003354 	.word	0x00003354
2000021c:	00003352 	.word	0x00003352

20000220 <aeabi_bits_funcs_end>:
20000220:	0000534d 	.word	0x0000534d
20000224:	0000434d 	.word	0x0000434d
20000228:	00003453 	.word	0x00003453
2000022c:	00003443 	.word	0x00003443

20000230 <stdio_uart>:
20000230:	100023e5 00000000 100023b1 00000000     .#.......#......
20000240:	00000100                                ....

20000244 <print_mutex>:
	...

2000024c <__mutex_array_end>:
2000024c:	100021c1 	.word	0x100021c1
20000250:	10001b1d 	.word	0x10001b1d
20000254:	10001ff5 	.word	0x10001ff5
20000258:	10002139 	.word	0x10002139

2000025c <__frame_dummy_init_array_entry>:
2000025c:	100002ed                                ....
